   1               		.file	"A7139.c"
   2               	__SREG__ = 0x3f
   3               	__SP_H__ = 0x3e
   4               	__SP_L__ = 0x3d
   5               	__CCP__  = 0x34
   6               	__tmp_reg__ = 0
   7               	__zero_reg__ = 1
  15               	.Ltext0:
  16               	.global	SPIx_WriteByte
  18               	SPIx_WriteByte:
  19               	.LFB8:
  20               	.LM1:
  21               	.LVL0:
  22               	/* prologue: function */
  23               	/* frame size = 0 */
  24               	.LM2:
  25 0000 D29A      		sbi 58-32,2
  26 0002 90E0      		ldi r25,lo8(0)
  27               	.LVL1:
  28               	.L5:
  29               	.LM3:
  30 0004 87FF      		sbrs r24,7
  31 0006 00C0      		rjmp .L2
  32               	.LM4:
  33 0008 DA9A      		sbi 59-32,2
  34 000a 00C0      		rjmp .L3
  35               	.L2:
  36               	.LM5:
  37 000c DA98      		cbi 59-32,2
  38               	.L3:
  39               	.LM6:
  40               	/* #APP */
  41               	 ;  28 "A7139.c" 1
  42 000e 0000      		nop
  43               	 ;  0 "" 2
  44               	.LM7:
  45               	/* #NOAPP */
  46 0010 D99A      		sbi 59-32,1
  47               	.LM8:
  48               	/* #APP */
  49               	 ;  30 "A7139.c" 1
  50 0012 0000      		nop
  51               	 ;  0 "" 2
  52               	.LM9:
  53               	/* #NOAPP */
  54 0014 D998      		cbi 59-32,1
  55               	.LM10:
  56 0016 9F5F      		subi r25,lo8(-(1))
  57 0018 9830      		cpi r25,lo8(8)
  58 001a 01F0      		breq .L6
  59               	.LM11:
  60 001c 880F      		lsl r24
  61               	.LVL2:
  62 001e 00C0      		rjmp .L5
  63               	.L6:
  64 0020 0895      		ret
  65               	.LFE8:
  67               	.global	SPIx_ReadByte
  69               	SPIx_ReadByte:
  70               	.LFB9:
  71               	.LM12:
  72               	/* prologue: function */
  73               	/* frame size = 0 */
  74               	.LM13:
  75 0022 D298      		cbi 58-32,2
  76 0024 90E0      		ldi r25,lo8(0)
  77               	.LVL3:
  78 0026 80E0      		ldi r24,lo8(0)
  79               	.LVL4:
  80               	.L10:
  81               	.LM14:
  82 0028 CA9B      		sbis 57-32,2
  83 002a 00C0      		rjmp .L8
  84               	.LM15:
  85 002c 880F      		lsl r24
  86 002e 8160      		ori r24,lo8(1)
  87 0030 00C0      		rjmp .L9
  88               	.L8:
  89               	.LM16:
  90 0032 880F      		lsl r24
  91               	.L9:
  92               	.LM17:
  93               	/* #APP */
  94               	 ;  46 "A7139.c" 1
  95 0034 0000      		nop
  96               	 ;  0 "" 2
  97               	.LM18:
  98               	/* #NOAPP */
  99 0036 D99A      		sbi 59-32,1
 100               	.LM19:
 101               	/* #APP */
 102               	 ;  48 "A7139.c" 1
 103 0038 0000      		nop
 104               	 ;  0 "" 2
 105               	.LM20:
 106               	/* #NOAPP */
 107 003a D998      		cbi 59-32,1
 108               	.LM21:
 109 003c 9F5F      		subi r25,lo8(-(1))
 110 003e 9830      		cpi r25,lo8(8)
 111 0040 01F4      		brne .L10
 112               	/* epilogue start */
 113               	.LM22:
 114 0042 0895      		ret
 115               	.LFE9:
 117               	.global	SPIx_WriteWord
 119               	SPIx_WriteWord:
 120               	.LFB10:
 121               	.LM23:
 122               	.LVL5:
 123               	/* prologue: function */
 124               	/* frame size = 0 */
 125               	.LM24:
 126 0044 D29A      		sbi 58-32,2
 127 0046 20E0      		ldi r18,lo8(0)
 128               	.LVL6:
 129               	.L17:
 130               	.LM25:
 131 0048 97FF      		sbrs r25,7
 132 004a 00C0      		rjmp .L14
 133               	.LM26:
 134 004c DA9A      		sbi 59-32,2
 135 004e 00C0      		rjmp .L15
 136               	.L14:
 137               	.LM27:
 138 0050 DA98      		cbi 59-32,2
 139               	.L15:
 140               	.LM28:
 141 0052 D99A      		sbi 59-32,1
 142               	.LM29:
 143               	/* #APP */
 144               	 ;  65 "A7139.c" 1
 145 0054 0000      		nop
 146               	 ;  0 "" 2
 147               	.LM30:
 148               	/* #NOAPP */
 149 0056 D998      		cbi 59-32,1
 150               	.LM31:
 151 0058 2F5F      		subi r18,lo8(-(1))
 152 005a 2031      		cpi r18,lo8(16)
 153 005c 01F0      		breq .L18
 154               	.LM32:
 155 005e 880F      		lsl r24
 156 0060 991F      		rol r25
 157               	.LVL7:
 158 0062 00C0      		rjmp .L17
 159               	.L18:
 160 0064 0895      		ret
 161               	.LFE10:
 163               	.global	SPIx_ReadWord
 165               	SPIx_ReadWord:
 166               	.LFB11:
 167               	.LM33:
 168               	/* prologue: function */
 169               	/* frame size = 0 */
 170               	.LM34:
 171 0066 D298      		cbi 58-32,2
 172 0068 20E0      		ldi r18,lo8(0)
 173 006a 30E0      		ldi r19,hi8(0)
 174               	.LVL8:
 175 006c 40E0      		ldi r20,lo8(0)
 176               	.LVL9:
 177               	.L22:
 178 006e C901      		movw r24,r18
 179 0070 880F      		lsl r24
 180 0072 991F      		rol r25
 181               	.LVL10:
 182               	.LM35:
 183 0074 CA9B      		sbis 57-32,2
 184 0076 00C0      		rjmp .L20
 185               	.LM36:
 186 0078 9C01      		movw r18,r24
 187 007a 2160      		ori r18,lo8(1)
 188               	.LVL11:
 189 007c 00C0      		rjmp .L21
 190               	.LVL12:
 191               	.L20:
 192               	.LM37:
 193 007e 9C01      		movw r18,r24
 194               	.LVL13:
 195               	.L21:
 196               	.LM38:
 197 0080 D99A      		sbi 59-32,1
 198               	.LM39:
 199               	/* #APP */
 200               	 ;  83 "A7139.c" 1
 201 0082 0000      		nop
 202               	 ;  0 "" 2
 203               	.LM40:
 204               	/* #NOAPP */
 205 0084 D998      		cbi 59-32,1
 206               	.LM41:
 207 0086 4F5F      		subi r20,lo8(-(1))
 208 0088 4031      		cpi r20,lo8(16)
 209 008a 01F4      		brne .L22
 210               	.LM42:
 211 008c C901      		movw r24,r18
 212               	.LVL14:
 213               	/* epilogue start */
 214 008e 0895      		ret
 215               	.LFE11:
 218               	A7139_WriteReg:
 219               	.LFB12:
 220               	.LM43:
 221               	.LVL15:
 222 0090 0F93      		push r16
 223 0092 1F93      		push r17
 224               	/* prologue: function */
 225               	/* frame size = 0 */
 226 0094 8B01      		movw r16,r22
 227               	.LM44:
 228 0096 D898      		cbi 59-32,0
 229               	.LM45:
 230 0098 0E94 0000 		call SPIx_WriteByte
 231               	.LVL16:
 232               	.LM46:
 233 009c C801      		movw r24,r16
 234 009e 0E94 0000 		call SPIx_WriteWord
 235               	.LM47:
 236 00a2 D89A      		sbi 59-32,0
 237               	/* epilogue start */
 238               	.LM48:
 239 00a4 1F91      		pop r17
 240 00a6 0F91      		pop r16
 241               	.LVL17:
 242 00a8 0895      		ret
 243               	.LFE12:
 246               	A7139_ReadReg:
 247               	.LFB13:
 248               	.LM49:
 249               	.LVL18:
 250               	/* prologue: function */
 251               	/* frame size = 0 */
 252               	.LM50:
 253 00aa D898      		cbi 59-32,0
 254               	.LM51:
 255 00ac 8068      		ori r24,lo8(-128)
 256               	.LVL19:
 257 00ae 0E94 0000 		call SPIx_WriteByte
 258               	.LM52:
 259               	/* #APP */
 260               	 ;  105 "A7139.c" 1
 261 00b2 0000      		nop
 262               	 ;  0 "" 2
 263               	.LM53:
 264               	/* #NOAPP */
 265 00b4 0E94 0000 		call SPIx_ReadWord
 266               	.LM54:
 267 00b8 D89A      		sbi 59-32,0
 268               	/* epilogue start */
 269               	.LM55:
 270 00ba 0895      		ret
 271               	.LFE13:
 274               	A7139_WritePageA:
 275               	.LFB14:
 276               	.LM56:
 277               	.LVL20:
 278 00bc 0F93      		push r16
 279 00be 1F93      		push r17
 280               	/* prologue: function */
 281               	/* frame size = 0 */
 282 00c0 8B01      		movw r16,r22
 283               	.LM57:
 284 00c2 782F      		mov r23,r24
 285 00c4 7295      		swap r23
 286 00c6 707F      		andi r23,lo8(-16)
 287 00c8 60E0      		ldi r22,lo8(0)
 288               	.LVL21:
 289               	.LM58:
 290 00ca 6161      		ori r22,lo8(17)
 291 00cc 87E0      		ldi r24,lo8(7)
 292               	.LVL22:
 293 00ce 0E94 0000 		call A7139_WriteReg
 294               	.LM59:
 295 00d2 88E0      		ldi r24,lo8(8)
 296 00d4 B801      		movw r22,r16
 297 00d6 0E94 0000 		call A7139_WriteReg
 298               	/* epilogue start */
 299               	.LM60:
 300 00da 1F91      		pop r17
 301 00dc 0F91      		pop r16
 302               	.LVL23:
 303 00de 0895      		ret
 304               	.LFE14:
 307               	A7139_WritePageB:
 308               	.LFB15:
 309               	.LM61:
 310               	.LVL24:
 311 00e0 0F93      		push r16
 312 00e2 1F93      		push r17
 313               	/* prologue: function */
 314               	/* frame size = 0 */
 315 00e4 8B01      		movw r16,r22
 316               	.LM62:
 317 00e6 682F      		mov r22,r24
 318               	.LVL25:
 319 00e8 70E0      		ldi r23,lo8(0)
 320               	.LVL26:
 321 00ea 7695      		lsr r23
 322 00ec 762F      		mov r23,r22
 323 00ee 6627      		clr r22
 324 00f0 7795      		ror r23
 325 00f2 6795      		ror r22
 326               	.LVL27:
 327               	.LM63:
 328 00f4 6161      		ori r22,lo8(17)
 329               	.LVL28:
 330 00f6 87E0      		ldi r24,lo8(7)
 331 00f8 0E94 0000 		call A7139_WriteReg
 332               	.LVL29:
 333               	.LM64:
 334 00fc 89E0      		ldi r24,lo8(9)
 335 00fe B801      		movw r22,r16
 336 0100 0E94 0000 		call A7139_WriteReg
 337               	/* epilogue start */
 338               	.LM65:
 339 0104 1F91      		pop r17
 340 0106 0F91      		pop r16
 341               	.LVL30:
 342 0108 0895      		ret
 343               	.LFE15:
 346               	A7139_ReadPageA:
 347               	.LFB16:
 348               	.LM66:
 349               	.LVL31:
 350               	/* prologue: function */
 351               	/* frame size = 0 */
 352               	.LM67:
 353 010a 782F      		mov r23,r24
 354 010c 7295      		swap r23
 355 010e 707F      		andi r23,lo8(-16)
 356 0110 60E0      		ldi r22,lo8(0)
 357               	.LM68:
 358 0112 6161      		ori r22,lo8(17)
 359 0114 87E0      		ldi r24,lo8(7)
 360               	.LVL32:
 361 0116 0E94 0000 		call A7139_WriteReg
 362               	.LM69:
 363 011a 88E0      		ldi r24,lo8(8)
 364 011c 0E94 0000 		call A7139_ReadReg
 365               	/* epilogue start */
 366               	.LM70:
 367 0120 0895      		ret
 368               	.LFE16:
 371               	A7139_RCOSC_Cal:
 372               	.LFB20:
 373               	.LM71:
 374 0122 1F93      		push r17
 375 0124 CF93      		push r28
 376 0126 DF93      		push r29
 377               	/* prologue: function */
 378               	/* frame size = 0 */
 379               	.LM72:
 380 0128 82E0      		ldi r24,lo8(2)
 381 012a 60E1      		ldi r22,lo8(-2032)
 382 012c 78EF      		ldi r23,hi8(-2032)
 383 012e 0E94 0000 		call A7139_WritePageA
 384 0132 1FEF      		ldi r17,lo8(-1)
 385               	.LVL33:
 386 0134 CFEF      		ldi r28,lo8(-1)
 387 0136 DFEF      		ldi r29,hi8(-1)
 388               	.LVL34:
 389               	.L41:
 390               	.LM73:
 391 0138 8FE0      		ldi r24,lo8(15)
 392 013a 61E0      		ldi r22,lo8(1)
 393 013c 70E0      		ldi r23,hi8(1)
 394 013e 0E94 0000 		call A7139_WritePageA
 395               	.L37:
 396               	.LM74:
 397 0142 8FE0      		ldi r24,lo8(15)
 398 0144 0E94 0000 		call A7139_ReadPageA
 399               	.LM75:
 400 0148 80FF      		sbrs r24,0
 401 014a 00C0      		rjmp .L36
 402 014c 2197      		sbiw r28,1
 403 014e 8FEF      		ldi r24,hi8(-1)
 404 0150 CF3F      		cpi r28,lo8(-1)
 405 0152 D807      		cpc r29,r24
 406 0154 01F4      		brne .L37
 407               	.L36:
 408               	.LM76:
 409 0156 8FE0      		ldi r24,lo8(15)
 410 0158 0E94 0000 		call A7139_ReadPageA
 411               	.LM77:
 412 015c 9370      		andi r25,hi8(1023)
 413 015e 9695      		lsr r25
 414 0160 8795      		ror r24
 415 0162 8B5B      		subi r24,lo8(-(-187))
 416 0164 9040      		sbci r25,hi8(-(-187))
 417 0166 0B97      		sbiw r24,11
 418 0168 00F0      		brlo .L38
 419               	.LM78:
 420 016a 1123      		tst r17
 421 016c 01F4      		brne .L39
 422 016e 84E0      		ldi r24,lo8(4)
 423 0170 00C0      		rjmp .L40
 424               	.L39:
 425 0172 1150      		subi r17,lo8(-(-1))
 426 0174 00C0      		rjmp .L41
 427               	.L38:
 428 0176 85E0      		ldi r24,lo8(5)
 429               	.L40:
 430               	/* epilogue start */
 431               	.LM79:
 432 0178 DF91      		pop r29
 433 017a CF91      		pop r28
 434               	.LVL35:
 435 017c 1F91      		pop r17
 436               	.LVL36:
 437 017e 0895      		ret
 438               	.LFE20:
 440               	.global	StrobeCmd
 442               	StrobeCmd:
 443               	.LFB21:
 444               	.LM80:
 445               	.LVL37:
 446               	/* prologue: function */
 447               	/* frame size = 0 */
 448               	.LM81:
 449 0180 D898      		cbi 59-32,0
 450               	.LM82:
 451 0182 0E94 0000 		call SPIx_WriteByte
 452               	.LVL38:
 453               	.LM83:
 454 0186 D89A      		sbi 59-32,0
 455               	/* epilogue start */
 456               	.LM84:
 457 0188 0895      		ret
 458               	.LFE21:
 460               	.global	A7139_SetCID
 462               	A7139_SetCID:
 463               	.LFB23:
 464               	.LM85:
 465               	.LVL39:
 466 018a EF92      		push r14
 467 018c FF92      		push r15
 468 018e 0F93      		push r16
 469 0190 1F93      		push r17
 470               	/* prologue: function */
 471               	/* frame size = 0 */
 472 0192 7B01      		movw r14,r22
 473 0194 8C01      		movw r16,r24
 474               	.LM86:
 475 0196 D898      		cbi 59-32,0
 476               	.LM87:
 477 0198 80E2      		ldi r24,lo8(32)
 478 019a 0E94 0000 		call SPIx_WriteByte
 479               	.LVL40:
 480               	.LM88:
 481 019e 812F      		mov r24,r17
 482 01a0 9927      		clr r25
 483 01a2 AA27      		clr r26
 484 01a4 BB27      		clr r27
 485 01a6 0E94 0000 		call SPIx_WriteByte
 486               	.LM89:
 487 01aa C801      		movw r24,r16
 488 01ac AA27      		clr r26
 489 01ae BB27      		clr r27
 490 01b0 0E94 0000 		call SPIx_WriteByte
 491               	.LM90:
 492 01b4 BB27      		clr r27
 493 01b6 A12F      		mov r26,r17
 494 01b8 902F      		mov r25,r16
 495 01ba 8F2D      		mov r24,r15
 496 01bc 0E94 0000 		call SPIx_WriteByte
 497               	.LM91:
 498 01c0 8E2D      		mov r24,r14
 499 01c2 0E94 0000 		call SPIx_WriteByte
 500               	.LM92:
 501 01c6 D89A      		sbi 59-32,0
 502               	.LM93:
 503 01c8 80E0      		ldi r24,lo8(0)
 504               	/* epilogue start */
 505 01ca 1F91      		pop r17
 506 01cc 0F91      		pop r16
 507 01ce FF90      		pop r15
 508 01d0 EF90      		pop r14
 509               	.LVL41:
 510 01d2 0895      		ret
 511               	.LFE23:
 513               	.global	A7139_Init
 515               	A7139_Init:
 516               	.LFB22:
 517               	.LM94:
 518               	.LVL42:
 519 01d4 6F92      		push r6
 520 01d6 7F92      		push r7
 521 01d8 8F92      		push r8
 522 01da 9F92      		push r9
 523 01dc AF92      		push r10
 524 01de BF92      		push r11
 525 01e0 CF92      		push r12
 526 01e2 DF92      		push r13
 527 01e4 EF92      		push r14
 528 01e6 FF92      		push r15
 529 01e8 0F93      		push r16
 530 01ea 1F93      		push r17
 531 01ec CF93      		push r28
 532 01ee DF93      		push r29
 533               	/* prologue: function */
 534               	/* frame size = 0 */
 535 01f0 3B01      		movw r6,r22
 536 01f2 4C01      		movw r8,r24
 537               	.LM95:
 538 01f4 D89A      		sbi 59-32,0
 539               	.LM96:
 540 01f6 D998      		cbi 59-32,1
 541               	.LM97:
 542 01f8 DA9A      		sbi 59-32,2
 543               	.LM98:
 544 01fa 80E7      		ldi r24,lo8(112)
 545 01fc 0E94 0000 		call StrobeCmd
 546               	.LVL43:
 547               	.LBB136:
 548               	.LBB137:
 549               	.LBB138:
 550               	.LBB139:
 551               	.LM99:
 552 0200 80E2      		ldi r24,lo8(20000)
 553 0202 9EE4      		ldi r25,hi8(20000)
 554               	.LVL44:
 555               	/* #APP */
 556               	 ;  105 "c:/winavr-20100110/lib/gcc/../../avr/include/util/delay_basic.h" 1
 557 0204 0197      		1: sbiw r24,1
 558 0206 01F4      		brne 1b
 559               	 ;  0 "" 2
 560               	/* #NOAPP */
 561 0208 C0E0      		ldi r28,lo8(A7139Config)
 562 020a D0E0      		ldi r29,hi8(A7139Config)
 563 020c 00E0      		ldi r16,lo8(0)
 564               	.LVL45:
 565               	.L49:
 566               	.LBE139:
 567               	.LBE138:
 568               	.LBE137:
 569               	.LBE136:
 570               	.LBB140:
 571               	.LBB141:
 572               	.LM100:
 573 020e 6991      		ld r22,Y+
 574 0210 7991      		ld r23,Y+
 575 0212 802F      		mov r24,r16
 576               	.LVL46:
 577 0214 0E94 0000 		call A7139_WriteReg
 578               	.LM101:
 579 0218 0F5F      		subi r16,lo8(-(1))
 580 021a 0830      		cpi r16,lo8(8)
 581 021c 01F4      		brne .L49
 582 021e C0E0      		ldi r28,lo8(A7139Config+20)
 583 0220 D0E0      		ldi r29,hi8(A7139Config+20)
 584 0222 0AE0      		ldi r16,lo8(10)
 585               	.LVL47:
 586               	.L50:
 587               	.LM102:
 588 0224 6991      		ld r22,Y+
 589 0226 7991      		ld r23,Y+
 590 0228 802F      		mov r24,r16
 591 022a 0E94 0000 		call A7139_WriteReg
 592               	.LM103:
 593 022e 0F5F      		subi r16,lo8(-(1))
 594 0230 0031      		cpi r16,lo8(16)
 595 0232 01F4      		brne .L50
 596 0234 C0E0      		ldi r28,lo8(A7139Config_PageA)
 597 0236 D0E0      		ldi r29,hi8(A7139Config_PageA)
 598 0238 00E0      		ldi r16,lo8(0)
 599               	.LVL48:
 600               	.L51:
 601               	.LM104:
 602 023a 6991      		ld r22,Y+
 603 023c 7991      		ld r23,Y+
 604 023e 802F      		mov r24,r16
 605 0240 0E94 0000 		call A7139_WritePageA
 606               	.LM105:
 607 0244 0F5F      		subi r16,lo8(-(1))
 608 0246 0031      		cpi r16,lo8(16)
 609 0248 01F4      		brne .L51
 610 024a C0E0      		ldi r28,lo8(A7139Config_PageB)
 611 024c D0E0      		ldi r29,hi8(A7139Config_PageB)
 612 024e 00E0      		ldi r16,lo8(0)
 613               	.LVL49:
 614               	.L52:
 615               	.LM106:
 616 0250 6991      		ld r22,Y+
 617 0252 7991      		ld r23,Y+
 618 0254 802F      		mov r24,r16
 619 0256 0E94 0000 		call A7139_WritePageB
 620               	.LM107:
 621 025a 0F5F      		subi r16,lo8(-(1))
 622 025c 0530      		cpi r16,lo8(5)
 623 025e 01F4      		brne .L52
 624               	.LBE141:
 625               	.LBE140:
 626               	.LBB142:
 627               	.LBB143:
 628               	.LBB144:
 629               	.LBB145:
 630               	.LM108:
 631 0260 80E2      		ldi r24,lo8(20000)
 632 0262 9EE4      		ldi r25,hi8(20000)
 633               	.LVL50:
 634               	/* #APP */
 635               	 ;  105 "c:/winavr-20100110/lib/gcc/../../avr/include/util/delay_basic.h" 1
 636 0264 0197      		1: sbiw r24,1
 637 0266 01F4      		brne 1b
 638               	 ;  0 "" 2
 639               	/* #NOAPP */
 640               	.LBE145:
 641               	.LBE144:
 642               	.LBE143:
 643               	.LBE142:
 644               	.LM109:
 645 0268 68EA      		ldi r22,lo8(175192488)
 646 026a 79E3      		ldi r23,hi8(175192488)
 647 026c 81E7      		ldi r24,hlo8(175192488)
 648 026e 9AE0      		ldi r25,hhi8(175192488)
 649 0270 0E94 0000 		call A7139_SetCID
 650               	.LVL51:
 651               	.LBB146:
 652               	.LBB147:
 653               	.LM110:
 654 0274 D898      		cbi 59-32,0
 655               	.LM111:
 656 0276 80EA      		ldi r24,lo8(-96)
 657 0278 0E94 0000 		call SPIx_WriteByte
 658               	.LM112:
 659 027c 0E94 0000 		call SPIx_ReadByte
 660               	.LM113:
 661 0280 0E94 0000 		call SPIx_ReadByte
 662               	.LM114:
 663 0284 0E94 0000 		call SPIx_ReadByte
 664               	.LM115:
 665 0288 0E94 0000 		call SPIx_ReadByte
 666               	.LM116:
 667 028c D89A      		sbi 59-32,0
 668               	.LBE147:
 669               	.LBE146:
 670               	.LBB148:
 671               	.LBB149:
 672               	.LBB150:
 673               	.LBB151:
 674               	.LM117:
 675 028e 80ED      		ldi r24,lo8(2000)
 676 0290 97E0      		ldi r25,hi8(2000)
 677               	.LVL52:
 678               	/* #APP */
 679               	 ;  105 "c:/winavr-20100110/lib/gcc/../../avr/include/util/delay_basic.h" 1
 680 0292 0197      		1: sbiw r24,1
 681 0294 01F4      		brne 1b
 682               	 ;  0 "" 2
 683               	/* #NOAPP */
 684               	.LBE151:
 685               	.LBE150:
 686               	.LBE149:
 687               	.LBE148:
 688               	.LBB152:
 689               	.LBB153:
 690               	.LM118:
 691 0296 C401      		movw r24,r8
 692 0298 B301      		movw r22,r6
 693 029a 2DEC      		ldi r18,lo8(0x414ccccd)
 694 029c 3CEC      		ldi r19,hi8(0x414ccccd)
 695 029e 4CE4      		ldi r20,hlo8(0x414ccccd)
 696 02a0 51E4      		ldi r21,hhi8(0x414ccccd)
 697 02a2 0E94 0000 		call __divsf3
 698               	.LVL53:
 699 02a6 5B01      		movw r10,r22
 700 02a8 6C01      		movw r12,r24
 701               	.LVL54:
 702               	.LM119:
 703 02aa 0E94 0000 		call __fixunssfsi
 704 02ae E62E      		mov r14,r22
 705               	.LVL55:
 706               	.LM120:
 707 02b0 84E1      		ldi r24,lo8(20)
 708 02b2 0E94 0000 		call StrobeCmd
 709               	.LM121:
 710 02b6 83E0      		ldi r24,lo8(3)
 711 02b8 60E0      		ldi r22,lo8(0)
 712 02ba 70E0      		ldi r23,hi8(0)
 713 02bc 0E94 0000 		call A7139_WriteReg
 714               	.LM122:
 715 02c0 86E0      		ldi r24,lo8(6)
 716 02c2 60E0      		ldi r22,lo8(0)
 717 02c4 70E0      		ldi r23,hi8(0)
 718 02c6 0E94 0000 		call A7139_WriteReg
 719               	.LM123:
 720 02ca C401      		movw r24,r8
 721 02cc B301      		movw r22,r6
 722 02ce 20E0      		ldi r18,lo8(0x44570000)
 723 02d0 30E0      		ldi r19,hi8(0x44570000)
 724 02d2 47E5      		ldi r20,hlo8(0x44570000)
 725 02d4 54E4      		ldi r21,hhi8(0x44570000)
 726 02d6 0E94 0000 		call __ltsf2
 727 02da 8823      		tst r24
 728 02dc 04F4      		brge .L70
 729 02de 60E2      		ldi r22,lo8(2592)
 730 02e0 7AE0      		ldi r23,hi8(2592)
 731               	.LVL56:
 732 02e2 00C0      		rjmp .L55
 733               	.LVL57:
 734               	.L70:
 735 02e4 60E2      		ldi r22,lo8(6688)
 736 02e6 7AE1      		ldi r23,hi8(6688)
 737               	.LVL58:
 738               	.L55:
 739               	.LM124:
 740 02e8 84E0      		ldi r24,lo8(4)
 741 02ea 0E94 0000 		call A7139_WriteReg
 742               	.LVL59:
 743               	.LM125:
 744 02ee FF24      		clr r15
 745               	.LVL60:
 746 02f0 B701      		movw r22,r14
 747 02f2 7A60      		ori r23,hi8(2560)
 748 02f4 81E0      		ldi r24,lo8(1)
 749 02f6 0E94 0000 		call A7139_WriteReg
 750               	.LM126:
 751 02fa 0027      		clr r16
 752 02fc F7FC      		sbrc r15,7
 753 02fe 0095      		com r16
 754 0300 102F      		mov r17,r16
 755               	.LVL61:
 756 0302 C801      		movw r24,r16
 757 0304 B701      		movw r22,r14
 758 0306 0E94 0000 		call __floatsisf
 759 030a 9B01      		movw r18,r22
 760 030c AC01      		movw r20,r24
 761 030e C601      		movw r24,r12
 762 0310 B501      		movw r22,r10
 763 0312 0E94 0000 		call __subsf3
 764 0316 20E0      		ldi r18,lo8(0x47800000)
 765 0318 30E0      		ldi r19,hi8(0x47800000)
 766 031a 40E8      		ldi r20,hlo8(0x47800000)
 767 031c 57E4      		ldi r21,hhi8(0x47800000)
 768 031e 0E94 0000 		call __mulsf3
 769 0322 0E94 0000 		call __fixunssfsi
 770 0326 9B01      		movw r18,r22
 771 0328 AC01      		movw r20,r24
 772 032a 82E0      		ldi r24,lo8(2)
 773 032c B901      		movw r22,r18
 774 032e 0E94 0000 		call A7139_WriteReg
 775               	.LM127:
 776 0332 82E0      		ldi r24,lo8(2)
 777 0334 60E0      		ldi r22,lo8(0)
 778 0336 70E0      		ldi r23,hi8(0)
 779 0338 0E94 0000 		call A7139_WritePageB
 780               	.LBE153:
 781               	.LBE152:
 782               	.LBB154:
 783               	.LBB155:
 784               	.LBB156:
 785               	.LBB157:
 786               	.LM128:
 787 033c 80E3      		ldi r24,lo8(30000)
 788 033e 95E7      		ldi r25,hi8(30000)
 789               	.LVL62:
 790               	/* #APP */
 791               	 ;  105 "c:/winavr-20100110/lib/gcc/../../avr/include/util/delay_basic.h" 1
 792 0340 0197      		1: sbiw r24,1
 793 0342 01F4      		brne 1b
 794               	 ;  0 "" 2
 795               	/* #NOAPP */
 796               	.LBE157:
 797               	.LBE156:
 798               	.LBE155:
 799               	.LBE154:
 800               	.LBB158:
 801               	.LBB159:
 802               	.LM129:
 803 0344 8FE0      		ldi r24,lo8(15)
 804               	.LVL63:
 805 0346 62EC      		ldi r22,lo8(10434)
 806 0348 78E2      		ldi r23,hi8(10434)
 807 034a 0E94 0000 		call A7139_WriteReg
 808               	.L56:
 809               	.LBE159:
 810               	.LM130:
 811 034e 8FE0      		ldi r24,lo8(15)
 812 0350 0E94 0000 		call A7139_ReadReg
 813               	.LBB168:
 814               	.LM131:
 815 0354 8270      		andi r24,lo8(2050)
 816 0356 9870      		andi r25,hi8(2050)
 817 0358 892B      		or r24,r25
 818 035a 01F4      		brne .L56
 819               	.LBE168:
 820               	.LM132:
 821 035c 8EE0      		ldi r24,lo8(14)
 822 035e 0E94 0000 		call A7139_ReadReg
 823 0362 8C01      		movw r16,r24
 824               	.LVL64:
 825               	.LM133:
 826 0364 8AE0      		ldi r24,lo8(10)
 827 0366 0E94 0000 		call A7139_ReadPageA
 828               	.LBB169:
 829               	.LM134:
 830 036a 24E0      		ldi r18,4
 831 036c 9695      	1:	lsr r25
 832 036e 8795      		ror r24
 833 0370 2A95      		dec r18
 834 0372 01F4      		brne 1b
 835 0374 94E0      		ldi r25,4
 836 0376 1695      	1:	lsr r17
 837 0378 0795      		ror r16
 838 037a 9A95      		dec r25
 839 037c 01F4      		brne 1b
 840 037e 802B      		or r24,r16
 841 0380 80FD      		sbrc r24,0
 842 0382 00C0      		rjmp .L57
 843               	.LM135:
 844 0384 8CE0      		ldi r24,lo8(12)
 845 0386 60E0      		ldi r22,lo8(19456)
 846 0388 7CE4      		ldi r23,hi8(19456)
 847 038a 0E94 0000 		call A7139_WriteReg
 848               	.LM136:
 849 038e 82E0      		ldi r24,lo8(2)
 850 0390 60E0      		ldi r22,lo8(-2048)
 851 0392 78EF      		ldi r23,hi8(-2048)
 852 0394 0E94 0000 		call A7139_WritePageA
 853               	.LM137:
 854 0398 80E0      		ldi r24,lo8(0)
 855 039a 66E0      		ldi r22,lo8(-2298)
 856 039c 77EF      		ldi r23,hi8(-2298)
 857 039e 0E94 0000 		call A7139_WritePageA
 858               	.LM138:
 859 03a2 8FE0      		ldi r24,lo8(15)
 860 03a4 60EC      		ldi r22,lo8(12480)
 861 03a6 70E3      		ldi r23,hi8(12480)
 862 03a8 0E94 0000 		call A7139_WriteReg
 863               	.L58:
 864               	.LBE169:
 865               	.LM139:
 866 03ac 8FE0      		ldi r24,lo8(15)
 867 03ae 0E94 0000 		call A7139_ReadReg
 868               	.LBB170:
 869               	.LM140:
 870 03b2 94FD      		sbrc r25,4
 871 03b4 00C0      		rjmp .L58
 872               	.LM141:
 873 03b6 8CE0      		ldi r24,lo8(12)
 874 03b8 60E0      		ldi r22,lo8(17408)
 875 03ba 74E4      		ldi r23,hi8(17408)
 876 03bc 0E94 0000 		call A7139_WriteReg
 877               	.LM142:
 878 03c0 82E0      		ldi r24,lo8(2)
 879 03c2 60E0      		ldi r22,lo8(-2048)
 880 03c4 78EF      		ldi r23,hi8(-2048)
 881 03c6 0E94 0000 		call A7139_WritePageA
 882               	.LM143:
 883 03ca 80E0      		ldi r24,lo8(0)
 884 03cc 66E0      		ldi r22,lo8(-2298)
 885 03ce 77EF      		ldi r23,hi8(-2298)
 886 03d0 0E94 0000 		call A7139_WritePageA
 887               	.LM144:
 888 03d4 8FE0      		ldi r24,lo8(15)
 889 03d6 64EC      		ldi r22,lo8(8388)
 890 03d8 70E2      		ldi r23,hi8(8388)
 891 03da 0E94 0000 		call A7139_WriteReg
 892               	.LBB161:
 893               	.LBB162:
 894               	.LBB163:
 895               	.LBB164:
 896               	.LM145:
 897 03de 02E0      		ldi r16,lo8(2)
 898               	.LVL65:
 899               	.L59:
 900               	.LBE164:
 901               	.LBE163:
 902               	.LBE162:
 903               	.LBE161:
 904               	.LBE170:
 905               	.LM146:
 906 03e0 8FE0      		ldi r24,lo8(15)
 907 03e2 0E94 0000 		call A7139_ReadReg
 908               	.LBB171:
 909               	.LBB160:
 910               	.LBB167:
 911               	.LBB166:
 912               	.LBB165:
 913               	.LM147:
 914 03e6 902F      		mov r25,r16
 915               	.LVL66:
 916               	/* #APP */
 917               	 ;  83 "c:/winavr-20100110/lib/gcc/../../avr/include/util/delay_basic.h" 1
 918 03e8 9A95      		1: dec r25
 919 03ea 01F4      		brne 1b
 920               	 ;  0 "" 2
 921               	/* #NOAPP */
 922               	.LBE165:
 923               	.LBE166:
 924               	.LBE167:
 925               	.LBE160:
 926               	.LM148:
 927 03ec 82FD      		sbrc r24,2
 928 03ee 00C0      		rjmp .L59
 929               	.LVL67:
 930               	.LBE171:
 931               	.LM149:
 932 03f0 8EE0      		ldi r24,lo8(14)
 933               	.LVL68:
 934 03f2 0E94 0000 		call A7139_ReadReg
 935               	.LVL69:
 936               	.LBB172:
 937               	.LM150:
 938 03f6 90FD      		sbrc r25,0
 939 03f8 00C0      		rjmp .L57
 940 03fa 80E0      		ldi r24,lo8(0)
 941 03fc 00C0      		rjmp .L60
 942               	.LVL70:
 943               	.L57:
 944 03fe 84E0      		ldi r24,lo8(4)
 945               	.L60:
 946               	/* epilogue start */
 947               	.LBE172:
 948               	.LBE158:
 949               	.LM151:
 950 0400 DF91      		pop r29
 951 0402 CF91      		pop r28
 952 0404 1F91      		pop r17
 953 0406 0F91      		pop r16
 954               	.LVL71:
 955 0408 FF90      		pop r15
 956               	.LVL72:
 957 040a EF90      		pop r14
 958               	.LVL73:
 959 040c DF90      		pop r13
 960 040e CF90      		pop r12
 961 0410 BF90      		pop r11
 962 0412 AF90      		pop r10
 963               	.LVL74:
 964 0414 9F90      		pop r9
 965 0416 8F90      		pop r8
 966 0418 7F90      		pop r7
 967 041a 6F90      		pop r6
 968               	.LVL75:
 969 041c 0895      		ret
 970               	.LFE22:
 972               	.global	A7139_ReadPID
 974               	A7139_ReadPID:
 975               	.LFB25:
 976               	.LM152:
 977               	/* prologue: function */
 978               	/* frame size = 0 */
 979               	.LM153:
 980 041e 87E0      		ldi r24,lo8(7)
 981 0420 61E0      		ldi r22,lo8(1)
 982 0422 70E0      		ldi r23,hi8(1)
 983 0424 0E94 0000 		call A7139_WriteReg
 984               	.LM154:
 985 0428 89E0      		ldi r24,lo8(9)
 986 042a 0E94 0000 		call A7139_ReadReg
 987               	/* epilogue start */
 988               	.LM155:
 989 042e 0895      		ret
 990               	.LFE25:
 992               	.global	A7139_SetDataRate
 994               	A7139_SetDataRate:
 995               	.LFB26:
 996               	.LM156:
 997               	.LVL76:
 998 0430 1F93      		push r17
 999               	/* prologue: function */
 1000               	/* frame size = 0 */
 1001 0432 182F      		mov r17,r24
 1002               	.LM157:
 1003 0434 84E1      		ldi r24,lo8(20)
 1004               	.LVL77:
 1005 0436 0E94 0000 		call StrobeCmd
 1006               	.LM158:
 1007 043a 87E0      		ldi r24,lo8(7)
 1008 043c 60E1      		ldi r22,lo8(16)
 1009 043e 70E0      		ldi r23,hi8(16)
 1010 0440 0E94 0000 		call A7139_WriteReg
 1011               	.LM159:
 1012 0444 1233      		cpi r17,lo8(50)
 1013 0446 01F0      		breq .L77
 1014 0448 1333      		cpi r17,lo8(51)
 1015 044a 00F4      		brsh .L80
 1016 044c 1230      		cpi r17,lo8(2)
 1017 044e 01F0      		breq .L75
 1018 0450 1A30      		cpi r17,lo8(10)
 1019 0452 01F4      		brne .L74
 1020 0454 00C0      		rjmp .L85
 1021               	.L80:
 1022 0456 1436      		cpi r17,lo8(100)
 1023 0458 01F0      		breq .L78
 1024 045a 1639      		cpi r17,lo8(-106)
 1025 045c 01F4      		brne .L74
 1026 045e 00C0      		rjmp .L79
 1027               	.L75:
 1028               	.LM160:
 1029 0460 80E0      		ldi r24,lo8(0)
 1030 0462 63E2      		ldi r22,lo8(12323)
 1031 0464 70E3      		ldi r23,hi8(12323)
 1032 0466 00C0      		rjmp .L83
 1033               	.L85:
 1034               	.LM161:
 1035 0468 80E0      		ldi r24,lo8(0)
 1036 046a 63E2      		ldi r22,lo8(2083)
 1037 046c 78E0      		ldi r23,hi8(2083)
 1038               	.L83:
 1039 046e 0E94 0000 		call A7139_WriteReg
 1040               	.LM162:
 1041 0472 8AE0      		ldi r24,lo8(10)
 1042 0474 60ED      		ldi r22,lo8(6352)
 1043 0476 78E1      		ldi r23,hi8(6352)
 1044               	.L84:
 1045 0478 0E94 0000 		call A7139_WriteReg
 1046 047c 00C0      		rjmp .L79
 1047               	.L77:
 1048               	.LM163:
 1049 047e 80E0      		ldi r24,lo8(0)
 1050 0480 63E2      		ldi r22,lo8(35)
 1051 0482 70E0      		ldi r23,hi8(35)
 1052 0484 00C0      		rjmp .L83
 1053               	.L78:
 1054               	.LM164:
 1055 0486 80E0      		ldi r24,lo8(0)
 1056 0488 61E2      		ldi r22,lo8(33)
 1057 048a 70E0      		ldi r23,hi8(33)
 1058 048c 0E94 0000 		call A7139_WriteReg
 1059               	.LM165:
 1060 0490 8AE0      		ldi r24,lo8(10)
 1061 0492 64ED      		ldi r22,lo8(6356)
 1062 0494 78E1      		ldi r23,hi8(6356)
 1063 0496 00C0      		rjmp .L84
 1064               	.L74:
 1065               	.LM166:
 1066 0498 87E0      		ldi r24,lo8(7)
 1067 049a 61E1      		ldi r22,lo8(17)
 1068 049c 70E0      		ldi r23,hi8(17)
 1069 049e 0E94 0000 		call A7139_WriteReg
 1070 04a2 81E0      		ldi r24,lo8(1)
 1071 04a4 00C0      		rjmp .L81
 1072               	.L79:
 1073               	.LM167:
 1074 04a6 87E0      		ldi r24,lo8(7)
 1075 04a8 61E1      		ldi r22,lo8(17)
 1076 04aa 70E0      		ldi r23,hi8(17)
 1077 04ac 0E94 0000 		call A7139_WriteReg
 1078               	.LBB173:
 1079               	.LBB174:
 1080               	.LBB175:
 1081               	.LBB176:
 1082               	.LM168:
 1083 04b0 80E2      		ldi r24,lo8(20000)
 1084 04b2 9EE4      		ldi r25,hi8(20000)
 1085               	.LVL78:
 1086               	/* #APP */
 1087               	 ;  105 "c:/winavr-20100110/lib/gcc/../../avr/include/util/delay_basic.h" 1
 1088 04b4 0197      		1: sbiw r24,1
 1089 04b6 01F4      		brne 1b
 1090               	 ;  0 "" 2
 1091               	/* #NOAPP */
 1092 04b8 80E0      		ldi r24,lo8(0)
 1093               	.LVL79:
 1094               	.L81:
 1095               	/* epilogue start */
 1096               	.LBE176:
 1097               	.LBE175:
 1098               	.LBE174:
 1099               	.LBE173:
 1100               	.LM169:
 1101 04ba 1F91      		pop r17
 1102               	.LVL80:
 1103 04bc 0895      		ret
 1104               	.LFE26:
 1106               	.global	A7139_SendData
 1108               	A7139_SendData:
 1109               	.LFB27:
 1110               	.LM170:
 1111               	.LVL81:
 1112 04be 1F93      		push r17
 1113 04c0 CF93      		push r28
 1114 04c2 DF93      		push r29
 1115               	/* prologue: function */
 1116               	/* frame size = 0 */
 1117 04c4 EC01      		movw r28,r24
 1118 04c6 162F      		mov r17,r22
 1119               	.LM171:
 1120 04c8 84E1      		ldi r24,lo8(20)
 1121               	.LVL82:
 1122 04ca 0E94 0000 		call StrobeCmd
 1123               	.LVL83:
 1124               	.LM172:
 1125 04ce 80E6      		ldi r24,lo8(96)
 1126 04d0 0E94 0000 		call StrobeCmd
 1127               	.LM173:
 1128 04d4 D898      		cbi 59-32,0
 1129               	.LM174:
 1130 04d6 80E4      		ldi r24,lo8(64)
 1131 04d8 0E94 0000 		call SPIx_WriteByte
 1132 04dc 00C0      		rjmp .L87
 1133               	.L88:
 1134               	.LM175:
 1135 04de 8991      		ld r24,Y+
 1136 04e0 0E94 0000 		call SPIx_WriteByte
 1137 04e4 1150      		subi r17,lo8(-(-1))
 1138               	.L87:
 1139               	.LM176:
 1140 04e6 1123      		tst r17
 1141 04e8 01F4      		brne .L88
 1142               	.LM177:
 1143 04ea D89A      		sbi 59-32,0
 1144               	.LM178:
 1145 04ec 8AE1      		ldi r24,lo8(26)
 1146 04ee 0E94 0000 		call StrobeCmd
 1147               	.L89:
 1148               	.LM179:
 1149 04f2 849B      		sbis 48-32,4
 1150 04f4 00C0      		rjmp .L89
 1151               	/* epilogue start */
 1152               	.LM180:
 1153 04f6 DF91      		pop r29
 1154 04f8 CF91      		pop r28
 1155               	.LVL84:
 1156 04fa 1F91      		pop r17
 1157               	.LVL85:
 1158 04fc 0895      		ret
 1159               	.LFE27:
 1161               	.global	A7139_WriteFIFO
 1163               	A7139_WriteFIFO:
 1164               	.LFB28:
 1165               	.LM181:
 1166               	.LVL86:
 1167 04fe FF92      		push r15
 1168 0500 0F93      		push r16
 1169 0502 1F93      		push r17
 1170 0504 CF93      		push r28
 1171 0506 DF93      		push r29
 1172               	/* prologue: function */
 1173               	/* frame size = 0 */
 1174 0508 182F      		mov r17,r24
 1175 050a 092F      		mov r16,r25
 1176               	.LVL87:
 1177 050c F62E      		mov r15,r22
 1178               	.LM182:
 1179 050e 80E6      		ldi r24,lo8(96)
 1180               	.LVL88:
 1181 0510 0E94 0000 		call StrobeCmd
 1182               	.LVL89:
 1183               	.LM183:
 1184 0514 D898      		cbi 59-32,0
 1185               	.LM184:
 1186 0516 80E4      		ldi r24,lo8(64)
 1187 0518 0E94 0000 		call SPIx_WriteByte
 1188 051c 212F      		mov r18,r17
 1189 051e 302F      		mov r19,r16
 1190 0520 C901      		movw r24,r18
 1191 0522 EC01      		movw r28,r24
 1192 0524 10E0      		ldi r17,lo8(0)
 1193               	.LVL90:
 1194 0526 00C0      		rjmp .L93
 1195               	.L94:
 1196               	.LM185:
 1197 0528 8991      		ld r24,Y+
 1198 052a 0E94 0000 		call SPIx_WriteByte
 1199               	.LM186:
 1200 052e 1F5F      		subi r17,lo8(-(1))
 1201               	.L93:
 1202 0530 1F15      		cp r17,r15
 1203 0532 00F0      		brlo .L94
 1204               	.LM187:
 1205 0534 D89A      		sbi 59-32,0
 1206               	/* epilogue start */
 1207               	.LM188:
 1208 0536 DF91      		pop r29
 1209 0538 CF91      		pop r28
 1210 053a 1F91      		pop r17
 1211               	.LVL91:
 1212 053c 0F91      		pop r16
 1213               	.LVL92:
 1214 053e FF90      		pop r15
 1215               	.LVL93:
 1216 0540 0895      		ret
 1217               	.LFE28:
 1219               	.global	A7139_ReadFIFO
 1221               	A7139_ReadFIFO:
 1222               	.LFB29:
 1223               	.LM189:
 1224 0542 EF92      		push r14
 1225 0544 FF92      		push r15
 1226 0546 0F93      		push r16
 1227 0548 1F93      		push r17
 1228 054a DF93      		push r29
 1229 054c CF93      		push r28
 1230 054e 0F92      		push __tmp_reg__
 1231 0550 CDB7      		in r28,__SP_L__
 1232 0552 DEB7      		in r29,__SP_H__
 1233               	/* prologue: function */
 1234               	/* frame size = 1 */
 1235               	.LM190:
 1236 0554 80EE      		ldi r24,lo8(-32)
 1237 0556 0E94 0000 		call StrobeCmd
 1238               	.LBB177:
 1239               	.LBB178:
 1240               	.LBB179:
 1241               	.LBB180:
 1242               	.LM191:
 1243 055a 8DE0      		ldi r24,lo8(13)
 1244               	.LVL94:
 1245               	/* #APP */
 1246               	 ;  83 "c:/winavr-20100110/lib/gcc/../../avr/include/util/delay_basic.h" 1
 1247 055c 8A95      		1: dec r24
 1248 055e 01F4      		brne 1b
 1249               	 ;  0 "" 2
 1250               	/* #NOAPP */
 1251               	.LBE180:
 1252               	.LBE179:
 1253               	.LBE178:
 1254               	.LBE177:
 1255               	.LM192:
 1256 0560 D898      		cbi 59-32,0
 1257               	.LM193:
 1258 0562 80EC      		ldi r24,lo8(-64)
 1259               	.LVL95:
 1260 0564 0E94 0000 		call SPIx_WriteByte
 1261               	.LM194:
 1262 0568 0E94 0000 		call SPIx_ReadByte
 1263               	.LM195:
 1264 056c 8E3F      		cpi r24,lo8(-2)
 1265 056e 01F0      		breq .L97
 1266 0570 90E0      		ldi r25,lo8(0)
 1267               	.LVL96:
 1268 0572 00C0      		rjmp .L98
 1269               	.LVL97:
 1270               	.L97:
 1271               	.LM196:
 1272 0574 0E94 0000 		call SPIx_ReadByte
 1273 0578 982F      		mov r25,r24
 1274               	.LVL98:
 1275               	.LM197:
 1276 057a 8150      		subi r24,lo8(-(-1))
 1277 057c 8F30      		cpi r24,lo8(15)
 1278 057e 00F4      		brsh .L98
 1279 0580 00E0      		ldi r16,lo8(tmpbuf)
 1280 0582 10E0      		ldi r17,hi8(tmpbuf)
 1281               	.LM198:
 1282 0584 E92E      		mov r14,r25
 1283 0586 FF24      		clr r15
 1284 0588 E00E      		add r14,r16
 1285 058a F11E      		adc r15,r17
 1286 058c 00C0      		rjmp .L99
 1287               	.L100:
 1288               	.LM199:
 1289 058e 9983      		std Y+1,r25
 1290               	.LVL99:
 1291 0590 0E94 0000 		call SPIx_ReadByte
 1292 0594 F801      		movw r30,r16
 1293 0596 8193      		st Z+,r24
 1294 0598 8F01      		movw r16,r30
 1295 059a 9981      		ldd r25,Y+1
 1296               	.LVL100:
 1297               	.L99:
 1298               	.LM200:
 1299 059c 0E15      		cp r16,r14
 1300 059e 1F05      		cpc r17,r15
 1301 05a0 01F4      		brne .L100
 1302               	.L98:
 1303               	.LM201:
 1304 05a2 D89A      		sbi 59-32,0
 1305               	.LM202:
 1306 05a4 892F      		mov r24,r25
 1307               	/* epilogue start */
 1308 05a6 0F90      		pop __tmp_reg__
 1309 05a8 CF91      		pop r28
 1310 05aa DF91      		pop r29
 1311 05ac 1F91      		pop r17
 1312 05ae 0F91      		pop r16
 1313 05b0 FF90      		pop r15
 1314 05b2 EF90      		pop r14
 1315 05b4 0895      		ret
 1316               	.LFE29:
 1318               	.global	A7139_SetPackLen
 1320               	A7139_SetPackLen:
 1321               	.LFB30:
 1322               	.LM203:
 1323               	.LVL101:
 1324 05b6 0F93      		push r16
 1325 05b8 1F93      		push r17
 1326               	/* prologue: function */
 1327               	/* frame size = 0 */
 1328 05ba 082F      		mov r16,r24
 1329               	.LM204:
 1330 05bc 84E1      		ldi r24,lo8(20)
 1331               	.LVL102:
 1332 05be 0E94 0000 		call StrobeCmd
 1333               	.LM205:
 1334 05c2 10E0      		ldi r17,lo8(0)
 1335               	.LVL103:
 1336 05c4 0150      		subi r16,lo8(-(-1))
 1337 05c6 1040      		sbci r17,hi8(-(-1))
 1338               	.LVL104:
 1339 05c8 8DE0      		ldi r24,lo8(13)
 1340 05ca B801      		movw r22,r16
 1341 05cc 0E94 0000 		call A7139_WritePageA
 1342               	.LM206:
 1343 05d0 8AE0      		ldi r24,lo8(10)
 1344 05d2 64E0      		ldi r22,lo8(4)
 1345 05d4 70E0      		ldi r23,hi8(4)
 1346 05d6 0E94 0000 		call A7139_WritePageA
 1347               	.LM207:
 1348 05da 80E0      		ldi r24,lo8(0)
 1349               	/* epilogue start */
 1350 05dc 1F91      		pop r17
 1351               	.LVL105:
 1352 05de 0F91      		pop r16
 1353               	.LVL106:
 1354 05e0 0895      		ret
 1355               	.LFE30:
 1357               	.global	A7139_IsBatteryLow
 1359               	A7139_IsBatteryLow:
 1360               	.LFB31:
 1361               	.LM208:
 1362               	.LVL107:
 1363 05e2 1F93      		push r17
 1364               	/* prologue: function */
 1365               	/* frame size = 0 */
 1366 05e4 182F      		mov r17,r24
 1367               	.LM209:
 1368 05e6 8830      		cpi r24,lo8(8)
 1369 05e8 00F4      		brsh .L109
 1370               	.L105:
 1371               	.LM210:
 1372 05ea 84E1      		ldi r24,lo8(20)
 1373               	.LVL108:
 1374 05ec 0E94 0000 		call StrobeCmd
 1375               	.LM211:
 1376 05f0 612F      		mov r22,r17
 1377 05f2 70E0      		ldi r23,lo8(0)
 1378               	.LVL109:
 1379 05f4 660F      		lsl r22
 1380 05f6 771F      		rol r23
 1381               	.LVL110:
 1382 05f8 6162      		ori r22,lo8(2593)
 1383 05fa 7A60      		ori r23,hi8(2593)
 1384               	.LVL111:
 1385 05fc 84E0      		ldi r24,lo8(4)
 1386 05fe 0E94 0000 		call A7139_WritePageA
 1387               	.LVL112:
 1388               	.LBB181:
 1389               	.LBB182:
 1390               	.LBB183:
 1391               	.LBB184:
 1392               	.LM212:
 1393 0602 8AE1      		ldi r24,lo8(26)
 1394               	.LVL113:
 1395               	/* #APP */
 1396               	 ;  83 "c:/winavr-20100110/lib/gcc/../../avr/include/util/delay_basic.h" 1
 1397 0604 8A95      		1: dec r24
 1398 0606 01F4      		brne 1b
 1399               	 ;  0 "" 2
 1400               	/* #NOAPP */
 1401               	.LBE184:
 1402               	.LBE183:
 1403               	.LBE182:
 1404               	.LBE181:
 1405               	.LM213:
 1406 0608 81E0      		ldi r24,lo8(1)
 1407               	.LVL114:
 1408 060a 0E94 0000 		call A7139_ReadPageA
 1409 060e 90E0      		ldi r25,lo8(0)
 1410 0610 87FF      		sbrs r24,7
 1411               	.LVL115:
 1412               	.L109:
 1413 0612 91E0      		ldi r25,lo8(1)
 1414               	.L106:
 1415               	.LM214:
 1416 0614 892F      		mov r24,r25
 1417               	.LVL116:
 1418               	/* epilogue start */
 1419 0616 1F91      		pop r17
 1420               	.LVL117:
 1421 0618 0895      		ret
 1422               	.LFE31:
 1424               	.global	A7139_GetRSSI
 1426               	A7139_GetRSSI:
 1427               	.LFB32:
 1428               	.LM215:
 1429 061a 1F93      		push r17
 1430 061c CF93      		push r28
 1431 061e DF93      		push r29
 1432               	/* prologue: function */
 1433               	/* frame size = 0 */
 1434               	.LM216:
 1435 0620 88E1      		ldi r24,lo8(24)
 1436 0622 0E94 0000 		call StrobeCmd
 1437               	.LM217:
 1438 0626 8CE0      		ldi r24,lo8(12)
 1439 0628 60E0      		ldi r22,lo8(17408)
 1440 062a 74E4      		ldi r23,hi8(17408)
 1441 062c 0E94 0000 		call A7139_WriteReg
 1442               	.LM218:
 1443 0630 8FE0      		ldi r24,lo8(15)
 1444 0632 0E94 0000 		call A7139_ReadReg
 1445 0636 BC01      		movw r22,r24
 1446 0638 6160      		ori r22,lo8(1)
 1447 063a 8FE0      		ldi r24,lo8(15)
 1448 063c 0E94 0000 		call A7139_WriteReg
 1449 0640 CFEF      		ldi r28,lo8(-1)
 1450 0642 DFEF      		ldi r29,hi8(-1)
 1451               	.LVL118:
 1452               	.L112:
 1453               	.LM219:
 1454 0644 8FE0      		ldi r24,lo8(15)
 1455 0646 0E94 0000 		call A7139_ReadReg
 1456               	.LM220:
 1457 064a 2197      		sbiw r28,1
 1458 064c 9FEF      		ldi r25,hi8(-1)
 1459 064e CF3F      		cpi r28,lo8(-1)
 1460 0650 D907      		cpc r29,r25
 1461 0652 01F0      		breq .L111
 1462 0654 80FD      		sbrc r24,0
 1463 0656 00C0      		rjmp .L112
 1464               	.L111:
 1465               	.LM221:
 1466 0658 CD2B      		or r28,r29
 1467 065a 01F4      		brne .L113
 1468 065c 10E0      		ldi r17,lo8(0)
 1469               	.LVL119:
 1470 065e 00C0      		rjmp .L114
 1471               	.LVL120:
 1472               	.L113:
 1473               	.LM222:
 1474 0660 8CE0      		ldi r24,lo8(12)
 1475 0662 0E94 0000 		call A7139_ReadReg
 1476 0666 182F      		mov r17,r24
 1477               	.LVL121:
 1478               	.L114:
 1479               	.LM223:
 1480 0668 84E1      		ldi r24,lo8(20)
 1481 066a 0E94 0000 		call StrobeCmd
 1482               	.LM224:
 1483 066e 812F      		mov r24,r17
 1484               	/* epilogue start */
 1485 0670 DF91      		pop r29
 1486 0672 CF91      		pop r28
 1487               	.LVL122:
 1488 0674 1F91      		pop r17
 1489               	.LVL123:
 1490 0676 0895      		ret
 1491               	.LFE32:
 1493               	.global	A7139_WOT
 1495               	A7139_WOT:
 1496               	.LFB33:
 1497               	.LM225:
 1498               	/* prologue: function */
 1499               	/* frame size = 0 */
 1500               	.LM226:
 1501 0678 0E94 0000 		call A7139_RCOSC_Cal
 1502 067c 8430      		cpi r24,lo8(4)
 1503 067e 01F0      		breq .L119
 1504               	.LM227:
 1505 0680 84E1      		ldi r24,lo8(20)
 1506 0682 0E94 0000 		call StrobeCmd
 1507               	.LM228:
 1508 0686 88E0      		ldi r24,lo8(8)
 1509 0688 65E4      		ldi r22,lo8(69)
 1510 068a 70E0      		ldi r23,hi8(69)
 1511 068c 0E94 0000 		call A7139_WritePageA
 1512               	.LM229:
 1513 0690 81E0      		ldi r24,lo8(1)
 1514 0692 6FE7      		ldi r22,lo8(639)
 1515 0694 72E0      		ldi r23,hi8(639)
 1516 0696 0E94 0000 		call A7139_WritePageA
 1517               	.LM230:
 1518 069a 8DE0      		ldi r24,lo8(13)
 1519 069c 60E0      		ldi r22,lo8(3072)
 1520 069e 7CE0      		ldi r23,hi8(3072)
 1521 06a0 0E94 0000 		call A7139_WriteReg
 1522               	.LM231:
 1523 06a4 8FE0      		ldi r24,lo8(15)
 1524 06a6 60EC      		ldi r22,lo8(8896)
 1525 06a8 72E2      		ldi r23,hi8(8896)
 1526 06aa 0E94 0000 		call A7139_WriteReg
 1527 06ae 80E0      		ldi r24,lo8(0)
 1528               	.L119:
 1529               	.LM232:
 1530 06b0 0895      		ret
 1531               	.LFE33:
 1533               	.global	A7139_WOR_BySync
 1535               	A7139_WOR_BySync:
 1536               	.LFB34:
 1537               	.LM233:
 1538               	/* prologue: function */
 1539               	/* frame size = 0 */
 1540               	.LM234:
 1541 06b2 84E1      		ldi r24,lo8(20)
 1542 06b4 0E94 0000 		call StrobeCmd
 1543               	.LM235:
 1544 06b8 88E0      		ldi r24,lo8(8)
 1545 06ba 65E4      		ldi r22,lo8(69)
 1546 06bc 70E0      		ldi r23,hi8(69)
 1547 06be 0E94 0000 		call A7139_WritePageA
 1548               	.LM236:
 1549 06c2 81E0      		ldi r24,lo8(1)
 1550 06c4 65E0      		ldi r22,lo8(-1019)
 1551 06c6 7CEF      		ldi r23,hi8(-1019)
 1552 06c8 0E94 0000 		call A7139_WritePageA
 1553               	.LM237:
 1554 06cc 0E94 0000 		call A7139_RCOSC_Cal
 1555 06d0 8430      		cpi r24,lo8(4)
 1556 06d2 01F0      		breq .L123
 1557               	.LM238:
 1558 06d4 82E0      		ldi r24,lo8(2)
 1559 06d6 60E1      		ldi r22,lo8(-2032)
 1560 06d8 78EF      		ldi r23,hi8(-2032)
 1561 06da 0E94 0000 		call A7139_WritePageA
 1562               	.LM239:
 1563 06de 8FE0      		ldi r24,lo8(15)
 1564 06e0 60EC      		ldi r22,lo8(8896)
 1565 06e2 72E2      		ldi r23,hi8(8896)
 1566 06e4 0E94 0000 		call A7139_WriteReg
 1567 06e8 80E0      		ldi r24,lo8(0)
 1568               	.L123:
 1569               	.LM240:
 1570 06ea 0895      		ret
 1571               	.LFE34:
 1573               	.global	A7139_WOR_ByPreamble
 1575               	A7139_WOR_ByPreamble:
 1576               	.LFB35:
 1577               	.LM241:
 1578               	/* prologue: function */
 1579               	/* frame size = 0 */
 1580               	.LM242:
 1581 06ec 84E1      		ldi r24,lo8(20)
 1582 06ee 0E94 0000 		call StrobeCmd
 1583               	.LBB185:
 1584               	.LBB186:
 1585               	.LBB187:
 1586               	.LBB188:
 1587               	.LM243:
 1588 06f2 85E3      		ldi r24,lo8(53)
 1589               	.LVL124:
 1590               	/* #APP */
 1591               	 ;  83 "c:/winavr-20100110/lib/gcc/../../avr/include/util/delay_basic.h" 1
 1592 06f4 8A95      		1: dec r24
 1593 06f6 01F4      		brne 1b
 1594               	 ;  0 "" 2
 1595               	/* #NOAPP */
 1596               	.LBE188:
 1597               	.LBE187:
 1598               	.LBE186:
 1599               	.LBE185:
 1600               	.LM244:
 1601 06f8 88E0      		ldi r24,lo8(8)
 1602               	.LVL125:
 1603 06fa 6DE4      		ldi r22,lo8(77)
 1604 06fc 70E0      		ldi r23,hi8(77)
 1605 06fe 0E94 0000 		call A7139_WritePageA
 1606               	.LM245:
 1607 0702 81E0      		ldi r24,lo8(1)
 1608 0704 65E0      		ldi r22,lo8(-1019)
 1609 0706 7CEF      		ldi r23,hi8(-1019)
 1610 0708 0E94 0000 		call A7139_WritePageA
 1611               	.LM246:
 1612 070c 0E94 0000 		call A7139_RCOSC_Cal
 1613 0710 8430      		cpi r24,lo8(4)
 1614 0712 01F0      		breq .L127
 1615               	.LM247:
 1616 0714 82E0      		ldi r24,lo8(2)
 1617 0716 60E3      		ldi r22,lo8(-2000)
 1618 0718 78EF      		ldi r23,hi8(-2000)
 1619 071a 0E94 0000 		call A7139_WritePageA
 1620               	.LM248:
 1621 071e 8FE0      		ldi r24,lo8(15)
 1622 0720 60EC      		ldi r22,lo8(8896)
 1623 0722 72E2      		ldi r23,hi8(8896)
 1624 0724 0E94 0000 		call A7139_WriteReg
 1625 0728 80E0      		ldi r24,lo8(0)
 1626               	.L127:
 1627               	.LM249:
 1628 072a 0895      		ret
 1629               	.LFE35:
 1631               	.global	A7139_SetPowerLevel
 1633               	A7139_SetPowerLevel:
 1634               	.LFB36:
 1635               	.LM250:
 1636               	.LVL126:
 1637 072c 1F93      		push r17
 1638               	/* prologue: function */
 1639               	/* frame size = 0 */
 1640 072e 182F      		mov r17,r24
 1641               	.LM251:
 1642 0730 84E1      		ldi r24,lo8(20)
 1643               	.LVL127:
 1644 0732 0E94 0000 		call StrobeCmd
 1645               	.LBB189:
 1646               	.LBB190:
 1647               	.LBB191:
 1648               	.LBB192:
 1649               	.LM252:
 1650 0736 85E3      		ldi r24,lo8(53)
 1651               	.LVL128:
 1652               	/* #APP */
 1653               	 ;  83 "c:/winavr-20100110/lib/gcc/../../avr/include/util/delay_basic.h" 1
 1654 0738 8A95      		1: dec r24
 1655 073a 01F4      		brne 1b
 1656               	 ;  0 "" 2
 1657               	/* #NOAPP */
 1658               	.LBE192:
 1659               	.LBE191:
 1660               	.LBE190:
 1661               	.LBE189:
 1662               	.LM253:
 1663 073c 1430      		cpi r17,lo8(4)
 1664 073e 01F0      		breq .L135
 1665 0740 1530      		cpi r17,lo8(5)
 1666 0742 00F4      		brsh .L140
 1667 0744 1130      		cpi r17,lo8(1)
 1668 0746 01F0      		breq .L132
 1669 0748 1130      		cpi r17,lo8(1)
 1670 074a 00F0      		brlo .L131
 1671 074c 1230      		cpi r17,lo8(2)
 1672 074e 01F0      		breq .L133
 1673 0750 1330      		cpi r17,lo8(3)
 1674 0752 01F4      		brne .L130
 1675 0754 00C0      		rjmp .L144
 1676               	.L140:
 1677 0756 1630      		cpi r17,lo8(6)
 1678 0758 01F0      		breq .L137
 1679 075a 1630      		cpi r17,lo8(6)
 1680 075c 00F0      		brlo .L136
 1681 075e 1730      		cpi r17,lo8(7)
 1682 0760 01F0      		breq .L138
 1683 0762 1830      		cpi r17,lo8(8)
 1684 0764 01F0      		breq .L139
 1685               	.L130:
 1686 0766 81E0      		ldi r24,lo8(1)
 1687               	.LVL129:
 1688 0768 00C0      		rjmp .L141
 1689               	.LVL130:
 1690               	.L131:
 1691               	.LM254:
 1692 076a 80E0      		ldi r24,lo8(0)
 1693               	.LVL131:
 1694 076c 61E0      		ldi r22,lo8(769)
 1695 076e 73E0      		ldi r23,hi8(769)
 1696 0770 00C0      		rjmp .L143
 1697               	.LVL132:
 1698               	.L132:
 1699               	.LM255:
 1700 0772 80E0      		ldi r24,lo8(0)
 1701               	.LVL133:
 1702 0774 69E0      		ldi r22,lo8(777)
 1703 0776 73E0      		ldi r23,hi8(777)
 1704 0778 00C0      		rjmp .L143
 1705               	.LVL134:
 1706               	.L133:
 1707               	.LM256:
 1708 077a 80E0      		ldi r24,lo8(0)
 1709               	.LVL135:
 1710 077c 6AE0      		ldi r22,lo8(778)
 1711 077e 73E0      		ldi r23,hi8(778)
 1712 0780 00C0      		rjmp .L143
 1713               	.LVL136:
 1714               	.L144:
 1715               	.LM257:
 1716 0782 80E0      		ldi r24,lo8(0)
 1717               	.LVL137:
 1718 0784 61E6      		ldi r22,lo8(865)
 1719 0786 73E0      		ldi r23,hi8(865)
 1720 0788 00C0      		rjmp .L143
 1721               	.LVL138:
 1722               	.L135:
 1723               	.LM258:
 1724 078a 80E0      		ldi r24,lo8(0)
 1725               	.LVL139:
 1726 078c 6AE2      		ldi r22,lo8(810)
 1727 078e 73E0      		ldi r23,hi8(810)
 1728 0790 00C0      		rjmp .L143
 1729               	.LVL140:
 1730               	.L136:
 1731               	.LM259:
 1732 0792 80E0      		ldi r24,lo8(0)
 1733               	.LVL141:
 1734 0794 6CE1      		ldi r22,lo8(796)
 1735 0796 73E0      		ldi r23,hi8(796)
 1736 0798 00C0      		rjmp .L143
 1737               	.LVL142:
 1738               	.L137:
 1739               	.LM260:
 1740 079a 80E0      		ldi r24,lo8(0)
 1741               	.LVL143:
 1742 079c 66E2      		ldi r22,lo8(806)
 1743 079e 73E0      		ldi r23,hi8(806)
 1744 07a0 00C0      		rjmp .L143
 1745               	.LVL144:
 1746               	.L138:
 1747               	.LM261:
 1748 07a2 80E0      		ldi r24,lo8(0)
 1749               	.LVL145:
 1750 07a4 6EE3      		ldi r22,lo8(830)
 1751 07a6 73E0      		ldi r23,hi8(830)
 1752 07a8 00C0      		rjmp .L143
 1753               	.LVL146:
 1754               	.L139:
 1755               	.LM262:
 1756 07aa 80E0      		ldi r24,lo8(0)
 1757               	.LVL147:
 1758 07ac 6FE5      		ldi r22,lo8(863)
 1759 07ae 73E0      		ldi r23,hi8(863)
 1760               	.L143:
 1761 07b0 0E94 0000 		call A7139_WritePageB
 1762 07b4 80E0      		ldi r24,lo8(0)
 1763               	.L141:
 1764               	/* epilogue start */
 1765               	.LM263:
 1766 07b6 1F91      		pop r17
 1767               	.LVL148:
 1768 07b8 0895      		ret
 1769               	.LFE36:
 1771               	.global	A7139Config
 1772               		.data
 1775               	A7139Config:
 1776 0000 2112      		.word	4641
 1777 0002 240A      		.word	2596
 1778 0004 05B8      		.word	-18427
 1779 0006 0000      		.word	0
 1780 0008 200A      		.word	2592
 1781 000a 2400      		.word	36
 1782 000c 0000      		.word	0
 1783 000e 1100      		.word	17
 1784 0010 0000      		.word	0
 1785 0012 0000      		.word	0
 1786 0014 D418      		.word	6356
 1787 0016 0970      		.word	28681
 1788 0018 0044      		.word	17408
 1789 001a 0008      		.word	2048
 1790 001c 454C      		.word	19525
 1791 001e C020      		.word	8384
 1792               	.global	A7139Config_PageA
 1795               	A7139Config_PageA:
 1796 0020 06F7      		.word	-2298
 1797 0022 0000      		.word	0
 1798 0024 00F8      		.word	-2048
 1799 0026 0711      		.word	4359
 1800 0028 7099      		.word	-26256
 1801 002a 0102      		.word	513
 1802 002c 0F40      		.word	16399
 1803 002e C02A      		.word	10944
 1804 0030 4500      		.word	69
 1805 0032 81D2      		.word	-11647
 1806 0034 0400      		.word	4
 1807 0036 2508      		.word	2085
 1808 0038 2701      		.word	295
 1809 003a 0F00      		.word	15
 1810 003c 5F15      		.word	5471
 1811 003e 0000      		.word	0
 1812               	.global	A7139Config_PageB
 1815               	A7139Config_PageB:
 1816 0040 5F03      		.word	863
 1817 0042 0084      		.word	-31744
 1818 0044 0000      		.word	0
 1819 0046 0000      		.word	0
 1820 0048 0000      		.word	0
 2037               	.Letext0:
DEFINED SYMBOLS
                            *ABS*:00000000 A7139.c
C:\Users\ADMINI~1\AppData\Local\Temp/ccH7X3Eq.s:2      *ABS*:0000003f __SREG__
C:\Users\ADMINI~1\AppData\Local\Temp/ccH7X3Eq.s:3      *ABS*:0000003e __SP_H__
C:\Users\ADMINI~1\AppData\Local\Temp/ccH7X3Eq.s:4      *ABS*:0000003d __SP_L__
C:\Users\ADMINI~1\AppData\Local\Temp/ccH7X3Eq.s:5      *ABS*:00000034 __CCP__
C:\Users\ADMINI~1\AppData\Local\Temp/ccH7X3Eq.s:6      *ABS*:00000000 __tmp_reg__
C:\Users\ADMINI~1\AppData\Local\Temp/ccH7X3Eq.s:7      *ABS*:00000001 __zero_reg__
C:\Users\ADMINI~1\AppData\Local\Temp/ccH7X3Eq.s:18     .text:00000000 SPIx_WriteByte
C:\Users\ADMINI~1\AppData\Local\Temp/ccH7X3Eq.s:69     .text:00000022 SPIx_ReadByte
C:\Users\ADMINI~1\AppData\Local\Temp/ccH7X3Eq.s:119    .text:00000044 SPIx_WriteWord
C:\Users\ADMINI~1\AppData\Local\Temp/ccH7X3Eq.s:165    .text:00000066 SPIx_ReadWord
C:\Users\ADMINI~1\AppData\Local\Temp/ccH7X3Eq.s:218    .text:00000090 A7139_WriteReg
C:\Users\ADMINI~1\AppData\Local\Temp/ccH7X3Eq.s:246    .text:000000aa A7139_ReadReg
C:\Users\ADMINI~1\AppData\Local\Temp/ccH7X3Eq.s:274    .text:000000bc A7139_WritePageA
C:\Users\ADMINI~1\AppData\Local\Temp/ccH7X3Eq.s:307    .text:000000e0 A7139_WritePageB
C:\Users\ADMINI~1\AppData\Local\Temp/ccH7X3Eq.s:346    .text:0000010a A7139_ReadPageA
C:\Users\ADMINI~1\AppData\Local\Temp/ccH7X3Eq.s:371    .text:00000122 A7139_RCOSC_Cal
C:\Users\ADMINI~1\AppData\Local\Temp/ccH7X3Eq.s:442    .text:00000180 StrobeCmd
C:\Users\ADMINI~1\AppData\Local\Temp/ccH7X3Eq.s:462    .text:0000018a A7139_SetCID
C:\Users\ADMINI~1\AppData\Local\Temp/ccH7X3Eq.s:515    .text:000001d4 A7139_Init
C:\Users\ADMINI~1\AppData\Local\Temp/ccH7X3Eq.s:1775   .data:00000000 A7139Config
C:\Users\ADMINI~1\AppData\Local\Temp/ccH7X3Eq.s:1795   .data:00000020 A7139Config_PageA
C:\Users\ADMINI~1\AppData\Local\Temp/ccH7X3Eq.s:1815   .data:00000040 A7139Config_PageB
C:\Users\ADMINI~1\AppData\Local\Temp/ccH7X3Eq.s:974    .text:0000041e A7139_ReadPID
C:\Users\ADMINI~1\AppData\Local\Temp/ccH7X3Eq.s:994    .text:00000430 A7139_SetDataRate
C:\Users\ADMINI~1\AppData\Local\Temp/ccH7X3Eq.s:1108   .text:000004be A7139_SendData
C:\Users\ADMINI~1\AppData\Local\Temp/ccH7X3Eq.s:1163   .text:000004fe A7139_WriteFIFO
C:\Users\ADMINI~1\AppData\Local\Temp/ccH7X3Eq.s:1221   .text:00000542 A7139_ReadFIFO
C:\Users\ADMINI~1\AppData\Local\Temp/ccH7X3Eq.s:1320   .text:000005b6 A7139_SetPackLen
C:\Users\ADMINI~1\AppData\Local\Temp/ccH7X3Eq.s:1359   .text:000005e2 A7139_IsBatteryLow
C:\Users\ADMINI~1\AppData\Local\Temp/ccH7X3Eq.s:1426   .text:0000061a A7139_GetRSSI
C:\Users\ADMINI~1\AppData\Local\Temp/ccH7X3Eq.s:1495   .text:00000678 A7139_WOT
C:\Users\ADMINI~1\AppData\Local\Temp/ccH7X3Eq.s:1535   .text:000006b2 A7139_WOR_BySync
C:\Users\ADMINI~1\AppData\Local\Temp/ccH7X3Eq.s:1575   .text:000006ec A7139_WOR_ByPreamble
C:\Users\ADMINI~1\AppData\Local\Temp/ccH7X3Eq.s:1633   .text:0000072c A7139_SetPowerLevel

UNDEFINED SYMBOLS
__divsf3
__fixunssfsi
__ltsf2
__floatsisf
__subsf3
__mulsf3
tmpbuf
__do_copy_data
