
main.elf:     file format elf32-avr

Sections:
Idx Name          Size      VMA       LMA       File off  Algn
  0 .data         00000052  00800100  00000eac  00000f40  2**0
                  CONTENTS, ALLOC, LOAD, DATA
  1 .text         00000eac  00000000  00000000  00000094  2**1
                  CONTENTS, ALLOC, LOAD, READONLY, CODE
  2 .bss          00000019  00800152  00800152  00000f92  2**0
                  ALLOC
  3 .debug_aranges 00000040  00000000  00000000  00000f92  2**0
                  CONTENTS, READONLY, DEBUGGING
  4 .debug_pubnames 000002a6  00000000  00000000  00000fd2  2**0
                  CONTENTS, READONLY, DEBUGGING
  5 .debug_info   00000f29  00000000  00000000  00001278  2**0
                  CONTENTS, READONLY, DEBUGGING
  6 .debug_abbrev 0000046d  00000000  00000000  000021a1  2**0
                  CONTENTS, READONLY, DEBUGGING
  7 .debug_line   00000dbc  00000000  00000000  0000260e  2**0
                  CONTENTS, READONLY, DEBUGGING
  8 .debug_frame  00000250  00000000  00000000  000033cc  2**2
                  CONTENTS, READONLY, DEBUGGING
  9 .debug_str    0000042a  00000000  00000000  0000361c  2**0
                  CONTENTS, READONLY, DEBUGGING
 10 .debug_loc    00000848  00000000  00000000  00003a46  2**0
                  CONTENTS, READONLY, DEBUGGING
 11 .debug_ranges 000000c8  00000000  00000000  0000428e  2**0
                  CONTENTS, READONLY, DEBUGGING

Disassembly of section .text:

00000000 <__vectors>:
   0:	22 c0       	rjmp	.+68     	; 0x46 <__ctors_end>
   2:	3c c0       	rjmp	.+120    	; 0x7c <__bad_interrupt>
   4:	3b c0       	rjmp	.+118    	; 0x7c <__bad_interrupt>
   6:	3a c0       	rjmp	.+116    	; 0x7c <__bad_interrupt>
   8:	39 c0       	rjmp	.+114    	; 0x7c <__bad_interrupt>
   a:	38 c0       	rjmp	.+112    	; 0x7c <__bad_interrupt>
   c:	37 c0       	rjmp	.+110    	; 0x7c <__bad_interrupt>
   e:	36 c0       	rjmp	.+108    	; 0x7c <__bad_interrupt>
  10:	35 c0       	rjmp	.+106    	; 0x7c <__bad_interrupt>
  12:	34 c4       	rjmp	.+2152   	; 0x87c <__vector_9>
  14:	33 c0       	rjmp	.+102    	; 0x7c <__bad_interrupt>
  16:	32 c0       	rjmp	.+100    	; 0x7c <__bad_interrupt>
  18:	31 c0       	rjmp	.+98     	; 0x7c <__bad_interrupt>
  1a:	0c c4       	rjmp	.+2072   	; 0x834 <__vector_13>
  1c:	2f c0       	rjmp	.+94     	; 0x7c <__bad_interrupt>
  1e:	2e c0       	rjmp	.+92     	; 0x7c <__bad_interrupt>
  20:	dc c3       	rjmp	.+1976   	; 0x7da <__vector_16>
  22:	2c c0       	rjmp	.+88     	; 0x7c <__bad_interrupt>
  24:	aa c3       	rjmp	.+1876   	; 0x77a <__vector_18>
  26:	2a c0       	rjmp	.+84     	; 0x7c <__bad_interrupt>
  28:	29 c0       	rjmp	.+82     	; 0x7c <__bad_interrupt>
  2a:	28 c0       	rjmp	.+80     	; 0x7c <__bad_interrupt>
  2c:	27 c0       	rjmp	.+78     	; 0x7c <__bad_interrupt>
  2e:	26 c0       	rjmp	.+76     	; 0x7c <__bad_interrupt>
  30:	25 c0       	rjmp	.+74     	; 0x7c <__bad_interrupt>
  32:	24 c0       	rjmp	.+72     	; 0x7c <__bad_interrupt>
  34:	52 c3       	rjmp	.+1700   	; 0x6da <A7139_SetPowerLevel+0x22>
  36:	55 c3       	rjmp	.+1706   	; 0x6e2 <A7139_SetPowerLevel+0x2a>
  38:	58 c3       	rjmp	.+1712   	; 0x6ea <A7139_SetPowerLevel+0x32>
  3a:	5b c3       	rjmp	.+1718   	; 0x6f2 <A7139_SetPowerLevel+0x3a>
  3c:	5e c3       	rjmp	.+1724   	; 0x6fa <A7139_SetPowerLevel+0x42>
  3e:	61 c3       	rjmp	.+1730   	; 0x702 <A7139_SetPowerLevel+0x4a>
  40:	64 c3       	rjmp	.+1736   	; 0x70a <A7139_SetPowerLevel+0x52>
  42:	67 c3       	rjmp	.+1742   	; 0x712 <A7139_SetPowerLevel+0x5a>
  44:	6a c3       	rjmp	.+1748   	; 0x71a <A7139_SetPowerLevel+0x62>

00000046 <__ctors_end>:
  46:	11 24       	eor	r1, r1
  48:	1f be       	out	0x3f, r1	; 63
  4a:	cf ef       	ldi	r28, 0xFF	; 255
  4c:	d2 e0       	ldi	r29, 0x02	; 2
  4e:	de bf       	out	0x3e, r29	; 62
  50:	cd bf       	out	0x3d, r28	; 61

00000052 <__do_copy_data>:
  52:	11 e0       	ldi	r17, 0x01	; 1
  54:	a0 e0       	ldi	r26, 0x00	; 0
  56:	b1 e0       	ldi	r27, 0x01	; 1
  58:	ec ea       	ldi	r30, 0xAC	; 172
  5a:	fe e0       	ldi	r31, 0x0E	; 14
  5c:	02 c0       	rjmp	.+4      	; 0x62 <.do_copy_data_start>

0000005e <.do_copy_data_loop>:
  5e:	05 90       	lpm	r0, Z+
  60:	0d 92       	st	X+, r0

00000062 <.do_copy_data_start>:
  62:	a2 35       	cpi	r26, 0x52	; 82
  64:	b1 07       	cpc	r27, r17
  66:	d9 f7       	brne	.-10     	; 0x5e <.do_copy_data_loop>

00000068 <__do_clear_bss>:
  68:	11 e0       	ldi	r17, 0x01	; 1
  6a:	a2 e5       	ldi	r26, 0x52	; 82
  6c:	b1 e0       	ldi	r27, 0x01	; 1
  6e:	01 c0       	rjmp	.+2      	; 0x72 <.do_clear_bss_start>

00000070 <.do_clear_bss_loop>:
  70:	1d 92       	st	X+, r1

00000072 <.do_clear_bss_start>:
  72:	ab 36       	cpi	r26, 0x6B	; 107
  74:	b1 07       	cpc	r27, r17
  76:	e1 f7       	brne	.-8      	; 0x70 <.do_clear_bss_loop>
  78:	4a d4       	rcall	.+2196   	; 0x90e <main>
  7a:	16 c7       	rjmp	.+3628   	; 0xea8 <_exit>

0000007c <__bad_interrupt>:
  7c:	c1 cf       	rjmp	.-126    	; 0x0 <__vectors>

0000007e <SPIx_WriteByte>:
  7e:	28 2f       	mov	r18, r24
  80:	22 9a       	sbi	0x04, 2	; 4
  82:	90 e0       	ldi	r25, 0x00	; 0
  84:	27 ff       	sbrs	r18, 7
  86:	02 c0       	rjmp	.+4      	; 0x8c <SPIx_WriteByte+0xe>
  88:	2a 9a       	sbi	0x05, 2	; 5
  8a:	03 c0       	rjmp	.+6      	; 0x92 <SPIx_WriteByte+0x14>
  8c:	85 b1       	in	r24, 0x05	; 5
  8e:	88 7f       	andi	r24, 0xF8	; 248
  90:	85 b9       	out	0x05, r24	; 5
  92:	00 00       	nop
  94:	40 9a       	sbi	0x08, 0	; 8
  96:	00 00       	nop
  98:	40 98       	cbi	0x08, 0	; 8
  9a:	9f 5f       	subi	r25, 0xFF	; 255
  9c:	98 30       	cpi	r25, 0x08	; 8
  9e:	11 f0       	breq	.+4      	; 0xa4 <SPIx_WriteByte+0x26>
  a0:	22 0f       	add	r18, r18
  a2:	f0 cf       	rjmp	.-32     	; 0x84 <SPIx_WriteByte+0x6>
  a4:	08 95       	ret

000000a6 <SPIx_ReadByte>:
  a6:	84 b1       	in	r24, 0x04	; 4
  a8:	88 7f       	andi	r24, 0xF8	; 248
  aa:	84 b9       	out	0x04, r24	; 4
  ac:	90 e0       	ldi	r25, 0x00	; 0
  ae:	80 e0       	ldi	r24, 0x00	; 0
  b0:	1a 9b       	sbis	0x03, 2	; 3
  b2:	03 c0       	rjmp	.+6      	; 0xba <SPIx_ReadByte+0x14>
  b4:	88 0f       	add	r24, r24
  b6:	81 60       	ori	r24, 0x01	; 1
  b8:	01 c0       	rjmp	.+2      	; 0xbc <SPIx_ReadByte+0x16>
  ba:	88 0f       	add	r24, r24
  bc:	00 00       	nop
  be:	40 9a       	sbi	0x08, 0	; 8
  c0:	00 00       	nop
  c2:	40 98       	cbi	0x08, 0	; 8
  c4:	9f 5f       	subi	r25, 0xFF	; 255
  c6:	98 30       	cpi	r25, 0x08	; 8
  c8:	99 f7       	brne	.-26     	; 0xb0 <SPIx_ReadByte+0xa>
  ca:	08 95       	ret

000000cc <SPIx_WriteWord>:
  cc:	9c 01       	movw	r18, r24
  ce:	22 9a       	sbi	0x04, 2	; 4
  d0:	90 e0       	ldi	r25, 0x00	; 0
  d2:	37 ff       	sbrs	r19, 7
  d4:	02 c0       	rjmp	.+4      	; 0xda <SPIx_WriteWord+0xe>
  d6:	2a 9a       	sbi	0x05, 2	; 5
  d8:	03 c0       	rjmp	.+6      	; 0xe0 <SPIx_WriteWord+0x14>
  da:	85 b1       	in	r24, 0x05	; 5
  dc:	88 7f       	andi	r24, 0xF8	; 248
  de:	85 b9       	out	0x05, r24	; 5
  e0:	40 9a       	sbi	0x08, 0	; 8
  e2:	00 00       	nop
  e4:	40 98       	cbi	0x08, 0	; 8
  e6:	9f 5f       	subi	r25, 0xFF	; 255
  e8:	90 31       	cpi	r25, 0x10	; 16
  ea:	19 f0       	breq	.+6      	; 0xf2 <SPIx_WriteWord+0x26>
  ec:	22 0f       	add	r18, r18
  ee:	33 1f       	adc	r19, r19
  f0:	f0 cf       	rjmp	.-32     	; 0xd2 <SPIx_WriteWord+0x6>
  f2:	08 95       	ret

000000f4 <SPIx_ReadWord>:
  f4:	84 b1       	in	r24, 0x04	; 4
  f6:	88 7f       	andi	r24, 0xF8	; 248
  f8:	84 b9       	out	0x04, r24	; 4
  fa:	20 e0       	ldi	r18, 0x00	; 0
  fc:	30 e0       	ldi	r19, 0x00	; 0
  fe:	40 e0       	ldi	r20, 0x00	; 0
 100:	c9 01       	movw	r24, r18
 102:	88 0f       	add	r24, r24
 104:	99 1f       	adc	r25, r25
 106:	1a 9b       	sbis	0x03, 2	; 3
 108:	03 c0       	rjmp	.+6      	; 0x110 <SPIx_ReadWord+0x1c>
 10a:	9c 01       	movw	r18, r24
 10c:	21 60       	ori	r18, 0x01	; 1
 10e:	01 c0       	rjmp	.+2      	; 0x112 <SPIx_ReadWord+0x1e>
 110:	9c 01       	movw	r18, r24
 112:	40 9a       	sbi	0x08, 0	; 8
 114:	00 00       	nop
 116:	40 98       	cbi	0x08, 0	; 8
 118:	4f 5f       	subi	r20, 0xFF	; 255
 11a:	40 31       	cpi	r20, 0x10	; 16
 11c:	89 f7       	brne	.-30     	; 0x100 <SPIx_ReadWord+0xc>
 11e:	c9 01       	movw	r24, r18
 120:	08 95       	ret

00000122 <A7139_WriteReg>:
 122:	0f 93       	push	r16
 124:	1f 93       	push	r17
 126:	8b 01       	movw	r16, r22
 128:	41 98       	cbi	0x08, 1	; 8
 12a:	a9 df       	rcall	.-174    	; 0x7e <SPIx_WriteByte>
 12c:	c8 01       	movw	r24, r16
 12e:	ce df       	rcall	.-100    	; 0xcc <SPIx_WriteWord>
 130:	41 9a       	sbi	0x08, 1	; 8
 132:	1f 91       	pop	r17
 134:	0f 91       	pop	r16
 136:	08 95       	ret

00000138 <A7139_ReadReg>:
 138:	41 98       	cbi	0x08, 1	; 8
 13a:	80 68       	ori	r24, 0x80	; 128
 13c:	a0 df       	rcall	.-192    	; 0x7e <SPIx_WriteByte>
 13e:	00 00       	nop
 140:	d9 df       	rcall	.-78     	; 0xf4 <SPIx_ReadWord>
 142:	41 9a       	sbi	0x08, 1	; 8
 144:	08 95       	ret

00000146 <A7139_WritePageA>:
 146:	0f 93       	push	r16
 148:	1f 93       	push	r17
 14a:	8b 01       	movw	r16, r22
 14c:	78 2f       	mov	r23, r24
 14e:	72 95       	swap	r23
 150:	70 7f       	andi	r23, 0xF0	; 240
 152:	60 e0       	ldi	r22, 0x00	; 0
 154:	61 61       	ori	r22, 0x11	; 17
 156:	87 e0       	ldi	r24, 0x07	; 7
 158:	e4 df       	rcall	.-56     	; 0x122 <A7139_WriteReg>
 15a:	88 e0       	ldi	r24, 0x08	; 8
 15c:	b8 01       	movw	r22, r16
 15e:	e1 df       	rcall	.-62     	; 0x122 <A7139_WriteReg>
 160:	1f 91       	pop	r17
 162:	0f 91       	pop	r16
 164:	08 95       	ret

00000166 <A7139_WritePageB>:
 166:	0f 93       	push	r16
 168:	1f 93       	push	r17
 16a:	8b 01       	movw	r16, r22
 16c:	68 2f       	mov	r22, r24
 16e:	70 e0       	ldi	r23, 0x00	; 0
 170:	76 95       	lsr	r23
 172:	76 2f       	mov	r23, r22
 174:	66 27       	eor	r22, r22
 176:	77 95       	ror	r23
 178:	67 95       	ror	r22
 17a:	61 61       	ori	r22, 0x11	; 17
 17c:	87 e0       	ldi	r24, 0x07	; 7
 17e:	d1 df       	rcall	.-94     	; 0x122 <A7139_WriteReg>
 180:	89 e0       	ldi	r24, 0x09	; 9
 182:	b8 01       	movw	r22, r16
 184:	ce df       	rcall	.-100    	; 0x122 <A7139_WriteReg>
 186:	1f 91       	pop	r17
 188:	0f 91       	pop	r16
 18a:	08 95       	ret

0000018c <A7139_ReadPageA>:
 18c:	78 2f       	mov	r23, r24
 18e:	72 95       	swap	r23
 190:	70 7f       	andi	r23, 0xF0	; 240
 192:	60 e0       	ldi	r22, 0x00	; 0
 194:	61 61       	ori	r22, 0x11	; 17
 196:	87 e0       	ldi	r24, 0x07	; 7
 198:	c4 df       	rcall	.-120    	; 0x122 <A7139_WriteReg>
 19a:	88 e0       	ldi	r24, 0x08	; 8
 19c:	cd df       	rcall	.-102    	; 0x138 <A7139_ReadReg>
 19e:	08 95       	ret

000001a0 <A7139_RCOSC_Cal>:
 1a0:	1f 93       	push	r17
 1a2:	cf 93       	push	r28
 1a4:	df 93       	push	r29
 1a6:	82 e0       	ldi	r24, 0x02	; 2
 1a8:	60 e1       	ldi	r22, 0x10	; 16
 1aa:	78 ef       	ldi	r23, 0xF8	; 248
 1ac:	cc df       	rcall	.-104    	; 0x146 <A7139_WritePageA>
 1ae:	cf ef       	ldi	r28, 0xFF	; 255
 1b0:	df ef       	ldi	r29, 0xFF	; 255
 1b2:	1f ef       	ldi	r17, 0xFF	; 255
 1b4:	8f e0       	ldi	r24, 0x0F	; 15
 1b6:	61 e0       	ldi	r22, 0x01	; 1
 1b8:	70 e0       	ldi	r23, 0x00	; 0
 1ba:	c5 df       	rcall	.-118    	; 0x146 <A7139_WritePageA>
 1bc:	8f e0       	ldi	r24, 0x0F	; 15
 1be:	e6 df       	rcall	.-52     	; 0x18c <A7139_ReadPageA>
 1c0:	80 ff       	sbrs	r24, 0
 1c2:	05 c0       	rjmp	.+10     	; 0x1ce <A7139_RCOSC_Cal+0x2e>
 1c4:	21 97       	sbiw	r28, 0x01	; 1
 1c6:	8f ef       	ldi	r24, 0xFF	; 255
 1c8:	cf 3f       	cpi	r28, 0xFF	; 255
 1ca:	d8 07       	cpc	r29, r24
 1cc:	b9 f7       	brne	.-18     	; 0x1bc <A7139_RCOSC_Cal+0x1c>
 1ce:	8f e0       	ldi	r24, 0x0F	; 15
 1d0:	dd df       	rcall	.-70     	; 0x18c <A7139_ReadPageA>
 1d2:	93 70       	andi	r25, 0x03	; 3
 1d4:	96 95       	lsr	r25
 1d6:	87 95       	ror	r24
 1d8:	8b 5b       	subi	r24, 0xBB	; 187
 1da:	90 40       	sbci	r25, 0x00	; 0
 1dc:	0b 97       	sbiw	r24, 0x0b	; 11
 1de:	30 f0       	brcs	.+12     	; 0x1ec <A7139_RCOSC_Cal+0x4c>
 1e0:	11 23       	and	r17, r17
 1e2:	11 f4       	brne	.+4      	; 0x1e8 <A7139_RCOSC_Cal+0x48>
 1e4:	84 e0       	ldi	r24, 0x04	; 4
 1e6:	03 c0       	rjmp	.+6      	; 0x1ee <A7139_RCOSC_Cal+0x4e>
 1e8:	11 50       	subi	r17, 0x01	; 1
 1ea:	e4 cf       	rjmp	.-56     	; 0x1b4 <A7139_RCOSC_Cal+0x14>
 1ec:	85 e0       	ldi	r24, 0x05	; 5
 1ee:	df 91       	pop	r29
 1f0:	cf 91       	pop	r28
 1f2:	1f 91       	pop	r17
 1f4:	08 95       	ret

000001f6 <StrobeCmd>:
 1f6:	41 98       	cbi	0x08, 1	; 8
 1f8:	42 df       	rcall	.-380    	; 0x7e <SPIx_WriteByte>
 1fa:	41 9a       	sbi	0x08, 1	; 8
 1fc:	08 95       	ret

000001fe <A7139_SetCID>:
 1fe:	ef 92       	push	r14
 200:	ff 92       	push	r15
 202:	0f 93       	push	r16
 204:	1f 93       	push	r17
 206:	7b 01       	movw	r14, r22
 208:	8c 01       	movw	r16, r24
 20a:	41 98       	cbi	0x08, 1	; 8
 20c:	80 e2       	ldi	r24, 0x20	; 32
 20e:	37 df       	rcall	.-402    	; 0x7e <SPIx_WriteByte>
 210:	81 2f       	mov	r24, r17
 212:	99 27       	eor	r25, r25
 214:	aa 27       	eor	r26, r26
 216:	bb 27       	eor	r27, r27
 218:	32 df       	rcall	.-412    	; 0x7e <SPIx_WriteByte>
 21a:	c8 01       	movw	r24, r16
 21c:	aa 27       	eor	r26, r26
 21e:	bb 27       	eor	r27, r27
 220:	2e df       	rcall	.-420    	; 0x7e <SPIx_WriteByte>
 222:	bb 27       	eor	r27, r27
 224:	a1 2f       	mov	r26, r17
 226:	90 2f       	mov	r25, r16
 228:	8f 2d       	mov	r24, r15
 22a:	29 df       	rcall	.-430    	; 0x7e <SPIx_WriteByte>
 22c:	8e 2d       	mov	r24, r14
 22e:	27 df       	rcall	.-434    	; 0x7e <SPIx_WriteByte>
 230:	41 9a       	sbi	0x08, 1	; 8
 232:	80 e0       	ldi	r24, 0x00	; 0
 234:	1f 91       	pop	r17
 236:	0f 91       	pop	r16
 238:	ff 90       	pop	r15
 23a:	ef 90       	pop	r14
 23c:	08 95       	ret

0000023e <A7139_Init>:
 23e:	6f 92       	push	r6
 240:	7f 92       	push	r7
 242:	8f 92       	push	r8
 244:	9f 92       	push	r9
 246:	af 92       	push	r10
 248:	bf 92       	push	r11
 24a:	cf 92       	push	r12
 24c:	df 92       	push	r13
 24e:	ef 92       	push	r14
 250:	ff 92       	push	r15
 252:	0f 93       	push	r16
 254:	1f 93       	push	r17
 256:	cf 93       	push	r28
 258:	df 93       	push	r29
 25a:	3b 01       	movw	r6, r22
 25c:	4c 01       	movw	r8, r24
 25e:	41 9a       	sbi	0x08, 1	; 8
 260:	40 98       	cbi	0x08, 0	; 8
 262:	2a 9a       	sbi	0x05, 2	; 5
 264:	80 e7       	ldi	r24, 0x70	; 112
 266:	c7 df       	rcall	.-114    	; 0x1f6 <StrobeCmd>
    milliseconds can be achieved.
 */
void
_delay_loop_2(uint16_t __count)
{
	__asm__ volatile (
 268:	80 e0       	ldi	r24, 0x00	; 0
 26a:	98 e4       	ldi	r25, 0x48	; 72
 26c:	01 97       	sbiw	r24, 0x01	; 1
 26e:	f1 f7       	brne	.-4      	; 0x26c <A7139_Init+0x2e>
 270:	c0 e0       	ldi	r28, 0x00	; 0
 272:	d1 e0       	ldi	r29, 0x01	; 1
 274:	00 e0       	ldi	r16, 0x00	; 0
 276:	69 91       	ld	r22, Y+
 278:	79 91       	ld	r23, Y+
 27a:	80 2f       	mov	r24, r16
 27c:	52 df       	rcall	.-348    	; 0x122 <A7139_WriteReg>
 27e:	0f 5f       	subi	r16, 0xFF	; 255
 280:	08 30       	cpi	r16, 0x08	; 8
 282:	c9 f7       	brne	.-14     	; 0x276 <A7139_Init+0x38>
 284:	c4 e1       	ldi	r28, 0x14	; 20
 286:	d1 e0       	ldi	r29, 0x01	; 1
 288:	0a e0       	ldi	r16, 0x0A	; 10
 28a:	69 91       	ld	r22, Y+
 28c:	79 91       	ld	r23, Y+
 28e:	80 2f       	mov	r24, r16
 290:	48 df       	rcall	.-368    	; 0x122 <A7139_WriteReg>
 292:	0f 5f       	subi	r16, 0xFF	; 255
 294:	00 31       	cpi	r16, 0x10	; 16
 296:	c9 f7       	brne	.-14     	; 0x28a <A7139_Init+0x4c>
 298:	c0 e2       	ldi	r28, 0x20	; 32
 29a:	d1 e0       	ldi	r29, 0x01	; 1
 29c:	00 e0       	ldi	r16, 0x00	; 0
 29e:	69 91       	ld	r22, Y+
 2a0:	79 91       	ld	r23, Y+
 2a2:	80 2f       	mov	r24, r16
 2a4:	50 df       	rcall	.-352    	; 0x146 <A7139_WritePageA>
 2a6:	0f 5f       	subi	r16, 0xFF	; 255
 2a8:	00 31       	cpi	r16, 0x10	; 16
 2aa:	c9 f7       	brne	.-14     	; 0x29e <A7139_Init+0x60>
 2ac:	c0 e4       	ldi	r28, 0x40	; 64
 2ae:	d1 e0       	ldi	r29, 0x01	; 1
 2b0:	00 e0       	ldi	r16, 0x00	; 0
 2b2:	69 91       	ld	r22, Y+
 2b4:	79 91       	ld	r23, Y+
 2b6:	80 2f       	mov	r24, r16
 2b8:	56 df       	rcall	.-340    	; 0x166 <A7139_WritePageB>
 2ba:	0f 5f       	subi	r16, 0xFF	; 255
 2bc:	05 30       	cpi	r16, 0x05	; 5
 2be:	c9 f7       	brne	.-14     	; 0x2b2 <A7139_Init+0x74>
 2c0:	80 e0       	ldi	r24, 0x00	; 0
 2c2:	98 e4       	ldi	r25, 0x48	; 72
 2c4:	01 97       	sbiw	r24, 0x01	; 1
 2c6:	f1 f7       	brne	.-4      	; 0x2c4 <A7139_Init+0x86>
 2c8:	68 ea       	ldi	r22, 0xA8	; 168
 2ca:	79 e3       	ldi	r23, 0x39	; 57
 2cc:	81 e7       	ldi	r24, 0x71	; 113
 2ce:	9a e0       	ldi	r25, 0x0A	; 10
 2d0:	96 df       	rcall	.-212    	; 0x1fe <A7139_SetCID>
 2d2:	83 e3       	ldi	r24, 0x33	; 51
 2d4:	97 e0       	ldi	r25, 0x07	; 7
 2d6:	01 97       	sbiw	r24, 0x01	; 1
 2d8:	f1 f7       	brne	.-4      	; 0x2d6 <A7139_Init+0x98>
 2da:	c4 01       	movw	r24, r8
 2dc:	b3 01       	movw	r22, r6
 2de:	2d ec       	ldi	r18, 0xCD	; 205
 2e0:	3c ec       	ldi	r19, 0xCC	; 204
 2e2:	4c e4       	ldi	r20, 0x4C	; 76
 2e4:	51 e4       	ldi	r21, 0x41	; 65
 2e6:	30 d4       	rcall	.+2144   	; 0xb48 <__divsf3>
 2e8:	5b 01       	movw	r10, r22
 2ea:	6c 01       	movw	r12, r24
 2ec:	95 d4       	rcall	.+2346   	; 0xc18 <__fixunssfsi>
 2ee:	e6 2e       	mov	r14, r22
 2f0:	84 e1       	ldi	r24, 0x14	; 20
 2f2:	81 df       	rcall	.-254    	; 0x1f6 <StrobeCmd>
 2f4:	83 e0       	ldi	r24, 0x03	; 3
 2f6:	60 e0       	ldi	r22, 0x00	; 0
 2f8:	70 e0       	ldi	r23, 0x00	; 0
 2fa:	13 df       	rcall	.-474    	; 0x122 <A7139_WriteReg>
 2fc:	86 e0       	ldi	r24, 0x06	; 6
 2fe:	60 e0       	ldi	r22, 0x00	; 0
 300:	70 e0       	ldi	r23, 0x00	; 0
 302:	0f df       	rcall	.-482    	; 0x122 <A7139_WriteReg>
 304:	c4 01       	movw	r24, r8
 306:	b3 01       	movw	r22, r6
 308:	20 e0       	ldi	r18, 0x00	; 0
 30a:	30 e0       	ldi	r19, 0x00	; 0
 30c:	47 e5       	ldi	r20, 0x57	; 87
 30e:	54 e4       	ldi	r21, 0x44	; 68
 310:	17 d4       	rcall	.+2094   	; 0xb40 <__cmpsf2>
 312:	88 23       	and	r24, r24
 314:	1c f4       	brge	.+6      	; 0x31c <__stack+0x1d>
 316:	60 e2       	ldi	r22, 0x20	; 32
 318:	7a e0       	ldi	r23, 0x0A	; 10
 31a:	02 c0       	rjmp	.+4      	; 0x320 <__stack+0x21>
 31c:	60 e2       	ldi	r22, 0x20	; 32
 31e:	7a e1       	ldi	r23, 0x1A	; 26
 320:	84 e0       	ldi	r24, 0x04	; 4
 322:	ff de       	rcall	.-514    	; 0x122 <A7139_WriteReg>
 324:	ff 24       	eor	r15, r15
 326:	b7 01       	movw	r22, r14
 328:	7a 60       	ori	r23, 0x0A	; 10
 32a:	81 e0       	ldi	r24, 0x01	; 1
 32c:	fa de       	rcall	.-524    	; 0x122 <A7139_WriteReg>
 32e:	00 27       	eor	r16, r16
 330:	f7 fc       	sbrc	r15, 7
 332:	00 95       	com	r16
 334:	10 2f       	mov	r17, r16
 336:	c8 01       	movw	r24, r16
 338:	b7 01       	movw	r22, r14
 33a:	9c d4       	rcall	.+2360   	; 0xc74 <__floatsisf>
 33c:	9b 01       	movw	r18, r22
 33e:	ac 01       	movw	r20, r24
 340:	c6 01       	movw	r24, r12
 342:	b5 01       	movw	r22, r10
 344:	98 d3       	rcall	.+1840   	; 0xa76 <__subsf3>
 346:	20 e0       	ldi	r18, 0x00	; 0
 348:	30 e0       	ldi	r19, 0x00	; 0
 34a:	40 e8       	ldi	r20, 0x80	; 128
 34c:	57 e4       	ldi	r21, 0x47	; 71
 34e:	42 d5       	rcall	.+2692   	; 0xdd4 <__mulsf3>
 350:	63 d4       	rcall	.+2246   	; 0xc18 <__fixunssfsi>
 352:	9b 01       	movw	r18, r22
 354:	ac 01       	movw	r20, r24
 356:	82 e0       	ldi	r24, 0x02	; 2
 358:	b9 01       	movw	r22, r18
 35a:	e3 de       	rcall	.-570    	; 0x122 <A7139_WriteReg>
 35c:	82 e0       	ldi	r24, 0x02	; 2
 35e:	60 e0       	ldi	r22, 0x00	; 0
 360:	70 e0       	ldi	r23, 0x00	; 0
 362:	01 df       	rcall	.-510    	; 0x166 <A7139_WritePageB>
 364:	80 e0       	ldi	r24, 0x00	; 0
 366:	9c e6       	ldi	r25, 0x6C	; 108
 368:	01 97       	sbiw	r24, 0x01	; 1
 36a:	f1 f7       	brne	.-4      	; 0x368 <__stack+0x69>
 36c:	8f e0       	ldi	r24, 0x0F	; 15
 36e:	62 ec       	ldi	r22, 0xC2	; 194
 370:	78 e2       	ldi	r23, 0x28	; 40
 372:	d7 de       	rcall	.-594    	; 0x122 <A7139_WriteReg>
 374:	8f e0       	ldi	r24, 0x0F	; 15
 376:	e0 de       	rcall	.-576    	; 0x138 <A7139_ReadReg>
 378:	82 70       	andi	r24, 0x02	; 2
 37a:	98 70       	andi	r25, 0x08	; 8
 37c:	89 2b       	or	r24, r25
 37e:	d1 f7       	brne	.-12     	; 0x374 <__stack+0x75>
 380:	8e e0       	ldi	r24, 0x0E	; 14
 382:	da de       	rcall	.-588    	; 0x138 <A7139_ReadReg>
 384:	8c 01       	movw	r16, r24
 386:	8a e0       	ldi	r24, 0x0A	; 10
 388:	01 df       	rcall	.-510    	; 0x18c <A7139_ReadPageA>
 38a:	f4 e0       	ldi	r31, 0x04	; 4
 38c:	96 95       	lsr	r25
 38e:	87 95       	ror	r24
 390:	fa 95       	dec	r31
 392:	e1 f7       	brne	.-8      	; 0x38c <__stack+0x8d>
 394:	e4 e0       	ldi	r30, 0x04	; 4
 396:	16 95       	lsr	r17
 398:	07 95       	ror	r16
 39a:	ea 95       	dec	r30
 39c:	e1 f7       	brne	.-8      	; 0x396 <__stack+0x97>
 39e:	80 2b       	or	r24, r16
 3a0:	80 fd       	sbrc	r24, 0
 3a2:	32 c0       	rjmp	.+100    	; 0x408 <__stack+0x109>
 3a4:	8c e0       	ldi	r24, 0x0C	; 12
 3a6:	60 e0       	ldi	r22, 0x00	; 0
 3a8:	7c e4       	ldi	r23, 0x4C	; 76
 3aa:	bb de       	rcall	.-650    	; 0x122 <A7139_WriteReg>
 3ac:	82 e0       	ldi	r24, 0x02	; 2
 3ae:	60 e0       	ldi	r22, 0x00	; 0
 3b0:	78 ef       	ldi	r23, 0xF8	; 248
 3b2:	c9 de       	rcall	.-622    	; 0x146 <A7139_WritePageA>
 3b4:	80 e0       	ldi	r24, 0x00	; 0
 3b6:	66 e0       	ldi	r22, 0x06	; 6
 3b8:	77 ef       	ldi	r23, 0xF7	; 247
 3ba:	c5 de       	rcall	.-630    	; 0x146 <A7139_WritePageA>
 3bc:	8f e0       	ldi	r24, 0x0F	; 15
 3be:	60 ec       	ldi	r22, 0xC0	; 192
 3c0:	70 e3       	ldi	r23, 0x30	; 48
 3c2:	af de       	rcall	.-674    	; 0x122 <A7139_WriteReg>
 3c4:	8f e0       	ldi	r24, 0x0F	; 15
 3c6:	b8 de       	rcall	.-656    	; 0x138 <A7139_ReadReg>
 3c8:	94 fd       	sbrc	r25, 4
 3ca:	fc cf       	rjmp	.-8      	; 0x3c4 <__stack+0xc5>
 3cc:	8c e0       	ldi	r24, 0x0C	; 12
 3ce:	60 e0       	ldi	r22, 0x00	; 0
 3d0:	74 e4       	ldi	r23, 0x44	; 68
 3d2:	a7 de       	rcall	.-690    	; 0x122 <A7139_WriteReg>
 3d4:	82 e0       	ldi	r24, 0x02	; 2
 3d6:	60 e0       	ldi	r22, 0x00	; 0
 3d8:	78 ef       	ldi	r23, 0xF8	; 248
 3da:	b5 de       	rcall	.-662    	; 0x146 <A7139_WritePageA>
 3dc:	80 e0       	ldi	r24, 0x00	; 0
 3de:	66 e0       	ldi	r22, 0x06	; 6
 3e0:	77 ef       	ldi	r23, 0xF7	; 247
 3e2:	b1 de       	rcall	.-670    	; 0x146 <A7139_WritePageA>
 3e4:	8f e0       	ldi	r24, 0x0F	; 15
 3e6:	64 ec       	ldi	r22, 0xC4	; 196
 3e8:	70 e2       	ldi	r23, 0x20	; 32
 3ea:	9b de       	rcall	.-714    	; 0x122 <A7139_WriteReg>
    can be achieved.
*/
void
_delay_loop_1(uint8_t __count)
{
	__asm__ volatile (
 3ec:	02 e0       	ldi	r16, 0x02	; 2
 3ee:	8f e0       	ldi	r24, 0x0F	; 15
 3f0:	a3 de       	rcall	.-698    	; 0x138 <A7139_ReadReg>
 3f2:	90 2f       	mov	r25, r16
 3f4:	9a 95       	dec	r25
 3f6:	f1 f7       	brne	.-4      	; 0x3f4 <__stack+0xf5>
 3f8:	82 fd       	sbrc	r24, 2
 3fa:	f9 cf       	rjmp	.-14     	; 0x3ee <__stack+0xef>
 3fc:	8e e0       	ldi	r24, 0x0E	; 14
 3fe:	9c de       	rcall	.-712    	; 0x138 <A7139_ReadReg>
 400:	90 fd       	sbrc	r25, 0
 402:	02 c0       	rjmp	.+4      	; 0x408 <__stack+0x109>
 404:	80 e0       	ldi	r24, 0x00	; 0
 406:	01 c0       	rjmp	.+2      	; 0x40a <__stack+0x10b>
 408:	84 e0       	ldi	r24, 0x04	; 4
 40a:	df 91       	pop	r29
 40c:	cf 91       	pop	r28
 40e:	1f 91       	pop	r17
 410:	0f 91       	pop	r16
 412:	ff 90       	pop	r15
 414:	ef 90       	pop	r14
 416:	df 90       	pop	r13
 418:	cf 90       	pop	r12
 41a:	bf 90       	pop	r11
 41c:	af 90       	pop	r10
 41e:	9f 90       	pop	r9
 420:	8f 90       	pop	r8
 422:	7f 90       	pop	r7
 424:	6f 90       	pop	r6
 426:	08 95       	ret

00000428 <A7139_ReadCID>:
 428:	ef 92       	push	r14
 42a:	ff 92       	push	r15
 42c:	0f 93       	push	r16
 42e:	1f 93       	push	r17
 430:	7c 01       	movw	r14, r24
 432:	41 98       	cbi	0x08, 1	; 8
 434:	80 ea       	ldi	r24, 0xA0	; 160
 436:	23 de       	rcall	.-954    	; 0x7e <SPIx_WriteByte>
 438:	36 de       	rcall	.-916    	; 0xa6 <SPIx_ReadByte>
 43a:	f7 01       	movw	r30, r14
 43c:	81 93       	st	Z+, r24
 43e:	8f 01       	movw	r16, r30
 440:	32 de       	rcall	.-924    	; 0xa6 <SPIx_ReadByte>
 442:	f7 01       	movw	r30, r14
 444:	81 83       	std	Z+1, r24	; 0x01
 446:	2f de       	rcall	.-930    	; 0xa6 <SPIx_ReadByte>
 448:	f8 01       	movw	r30, r16
 44a:	81 83       	std	Z+1, r24	; 0x01
 44c:	2c de       	rcall	.-936    	; 0xa6 <SPIx_ReadByte>
 44e:	0f 5f       	subi	r16, 0xFF	; 255
 450:	1f 4f       	sbci	r17, 0xFF	; 255
 452:	f8 01       	movw	r30, r16
 454:	81 83       	std	Z+1, r24	; 0x01
 456:	41 9a       	sbi	0x08, 1	; 8
 458:	80 e0       	ldi	r24, 0x00	; 0
 45a:	1f 91       	pop	r17
 45c:	0f 91       	pop	r16
 45e:	ff 90       	pop	r15
 460:	ef 90       	pop	r14
 462:	08 95       	ret

00000464 <A7139_ReadPID>:
 464:	87 e0       	ldi	r24, 0x07	; 7
 466:	61 e0       	ldi	r22, 0x01	; 1
 468:	70 e0       	ldi	r23, 0x00	; 0
 46a:	5b de       	rcall	.-842    	; 0x122 <A7139_WriteReg>
 46c:	89 e0       	ldi	r24, 0x09	; 9
 46e:	64 de       	rcall	.-824    	; 0x138 <A7139_ReadReg>
 470:	08 95       	ret

00000472 <A7139_SetDataRate>:
 472:	1f 93       	push	r17
 474:	18 2f       	mov	r17, r24
 476:	84 e1       	ldi	r24, 0x14	; 20
 478:	be de       	rcall	.-644    	; 0x1f6 <StrobeCmd>
 47a:	87 e0       	ldi	r24, 0x07	; 7
 47c:	60 e1       	ldi	r22, 0x10	; 16
 47e:	70 e0       	ldi	r23, 0x00	; 0
 480:	50 de       	rcall	.-864    	; 0x122 <A7139_WriteReg>
 482:	12 33       	cpi	r17, 0x32	; 50
 484:	c9 f0       	breq	.+50     	; 0x4b8 <A7139_SetDataRate+0x46>
 486:	13 33       	cpi	r17, 0x33	; 51
 488:	28 f4       	brcc	.+10     	; 0x494 <A7139_SetDataRate+0x22>
 48a:	12 30       	cpi	r17, 0x02	; 2
 48c:	41 f0       	breq	.+16     	; 0x49e <A7139_SetDataRate+0x2c>
 48e:	1a 30       	cpi	r17, 0x0A	; 10
 490:	f9 f4       	brne	.+62     	; 0x4d0 <A7139_SetDataRate+0x5e>
 492:	09 c0       	rjmp	.+18     	; 0x4a6 <A7139_SetDataRate+0x34>
 494:	14 36       	cpi	r17, 0x64	; 100
 496:	a1 f0       	breq	.+40     	; 0x4c0 <A7139_SetDataRate+0x4e>
 498:	16 39       	cpi	r17, 0x96	; 150
 49a:	d1 f4       	brne	.+52     	; 0x4d0 <A7139_SetDataRate+0x5e>
 49c:	1f c0       	rjmp	.+62     	; 0x4dc <A7139_SetDataRate+0x6a>
 49e:	80 e0       	ldi	r24, 0x00	; 0
 4a0:	63 e2       	ldi	r22, 0x23	; 35
 4a2:	70 e3       	ldi	r23, 0x30	; 48
 4a4:	03 c0       	rjmp	.+6      	; 0x4ac <A7139_SetDataRate+0x3a>
 4a6:	80 e0       	ldi	r24, 0x00	; 0
 4a8:	63 e2       	ldi	r22, 0x23	; 35
 4aa:	78 e0       	ldi	r23, 0x08	; 8
 4ac:	3a de       	rcall	.-908    	; 0x122 <A7139_WriteReg>
 4ae:	8a e0       	ldi	r24, 0x0A	; 10
 4b0:	60 ed       	ldi	r22, 0xD0	; 208
 4b2:	78 e1       	ldi	r23, 0x18	; 24
 4b4:	36 de       	rcall	.-916    	; 0x122 <A7139_WriteReg>
 4b6:	12 c0       	rjmp	.+36     	; 0x4dc <A7139_SetDataRate+0x6a>
 4b8:	80 e0       	ldi	r24, 0x00	; 0
 4ba:	63 e2       	ldi	r22, 0x23	; 35
 4bc:	70 e0       	ldi	r23, 0x00	; 0
 4be:	f6 cf       	rjmp	.-20     	; 0x4ac <A7139_SetDataRate+0x3a>
 4c0:	80 e0       	ldi	r24, 0x00	; 0
 4c2:	61 e2       	ldi	r22, 0x21	; 33
 4c4:	70 e0       	ldi	r23, 0x00	; 0
 4c6:	2d de       	rcall	.-934    	; 0x122 <A7139_WriteReg>
 4c8:	8a e0       	ldi	r24, 0x0A	; 10
 4ca:	64 ed       	ldi	r22, 0xD4	; 212
 4cc:	78 e1       	ldi	r23, 0x18	; 24
 4ce:	f2 cf       	rjmp	.-28     	; 0x4b4 <A7139_SetDataRate+0x42>
 4d0:	87 e0       	ldi	r24, 0x07	; 7
 4d2:	61 e1       	ldi	r22, 0x11	; 17
 4d4:	70 e0       	ldi	r23, 0x00	; 0
 4d6:	25 de       	rcall	.-950    	; 0x122 <A7139_WriteReg>
 4d8:	81 e0       	ldi	r24, 0x01	; 1
 4da:	09 c0       	rjmp	.+18     	; 0x4ee <A7139_SetDataRate+0x7c>
 4dc:	87 e0       	ldi	r24, 0x07	; 7
 4de:	61 e1       	ldi	r22, 0x11	; 17
 4e0:	70 e0       	ldi	r23, 0x00	; 0
 4e2:	1f de       	rcall	.-962    	; 0x122 <A7139_WriteReg>
    milliseconds can be achieved.
 */
void
_delay_loop_2(uint16_t __count)
{
	__asm__ volatile (
 4e4:	80 e0       	ldi	r24, 0x00	; 0
 4e6:	98 e4       	ldi	r25, 0x48	; 72
 4e8:	01 97       	sbiw	r24, 0x01	; 1
 4ea:	f1 f7       	brne	.-4      	; 0x4e8 <A7139_SetDataRate+0x76>
 4ec:	80 e0       	ldi	r24, 0x00	; 0
 4ee:	1f 91       	pop	r17
 4f0:	08 95       	ret

000004f2 <A7139_WriteFIFO>:
 4f2:	ff 92       	push	r15
 4f4:	0f 93       	push	r16
 4f6:	1f 93       	push	r17
 4f8:	cf 93       	push	r28
 4fa:	df 93       	push	r29
 4fc:	18 2f       	mov	r17, r24
 4fe:	09 2f       	mov	r16, r25
 500:	f6 2e       	mov	r15, r22
 502:	80 e6       	ldi	r24, 0x60	; 96
 504:	78 de       	rcall	.-784    	; 0x1f6 <StrobeCmd>
 506:	41 98       	cbi	0x08, 1	; 8
 508:	80 e4       	ldi	r24, 0x40	; 64
 50a:	b9 dd       	rcall	.-1166   	; 0x7e <SPIx_WriteByte>
 50c:	21 2f       	mov	r18, r17
 50e:	30 2f       	mov	r19, r16
 510:	c9 01       	movw	r24, r18
 512:	ec 01       	movw	r28, r24
 514:	10 e0       	ldi	r17, 0x00	; 0
 516:	03 c0       	rjmp	.+6      	; 0x51e <A7139_WriteFIFO+0x2c>
 518:	89 91       	ld	r24, Y+
 51a:	b1 dd       	rcall	.-1182   	; 0x7e <SPIx_WriteByte>
 51c:	1f 5f       	subi	r17, 0xFF	; 255
 51e:	1f 15       	cp	r17, r15
 520:	d8 f3       	brcs	.-10     	; 0x518 <A7139_WriteFIFO+0x26>
 522:	41 9a       	sbi	0x08, 1	; 8
 524:	df 91       	pop	r29
 526:	cf 91       	pop	r28
 528:	1f 91       	pop	r17
 52a:	0f 91       	pop	r16
 52c:	ff 90       	pop	r15
 52e:	08 95       	ret

00000530 <A7139_ReadFIFO>:
 530:	0f 93       	push	r16
 532:	1f 93       	push	r17
 534:	cf 93       	push	r28
 536:	df 93       	push	r29
 538:	ec 01       	movw	r28, r24
 53a:	80 ee       	ldi	r24, 0xE0	; 224
 53c:	5c de       	rcall	.-840    	; 0x1f6 <StrobeCmd>
    can be achieved.
*/
void
_delay_loop_1(uint8_t __count)
{
	__asm__ volatile (
 53e:	8c e0       	ldi	r24, 0x0C	; 12
 540:	8a 95       	dec	r24
 542:	f1 f7       	brne	.-4      	; 0x540 <A7139_ReadFIFO+0x10>
 544:	41 98       	cbi	0x08, 1	; 8
 546:	80 ec       	ldi	r24, 0xC0	; 192
 548:	9a dd       	rcall	.-1228   	; 0x7e <SPIx_WriteByte>
 54a:	ad dd       	rcall	.-1190   	; 0xa6 <SPIx_ReadByte>
 54c:	8c 3f       	cpi	r24, 0xFC	; 252
 54e:	11 f0       	breq	.+4      	; 0x554 <A7139_ReadFIFO+0x24>
 550:	00 e0       	ldi	r16, 0x00	; 0
 552:	0f c0       	rjmp	.+30     	; 0x572 <A7139_ReadFIFO+0x42>
 554:	88 83       	st	Y, r24
 556:	a7 dd       	rcall	.-1202   	; 0xa6 <SPIx_ReadByte>
 558:	08 2f       	mov	r16, r24
 55a:	89 83       	std	Y+1, r24	; 0x01
 55c:	81 50       	subi	r24, 0x01	; 1
 55e:	8f 30       	cpi	r24, 0x0F	; 15
 560:	40 f4       	brcc	.+16     	; 0x572 <A7139_ReadFIFO+0x42>
 562:	12 e0       	ldi	r17, 0x02	; 2
 564:	03 c0       	rjmp	.+6      	; 0x56c <A7139_ReadFIFO+0x3c>
 566:	9f dd       	rcall	.-1218   	; 0xa6 <SPIx_ReadByte>
 568:	89 83       	std	Y+1, r24	; 0x01
 56a:	1f 5f       	subi	r17, 0xFF	; 255
 56c:	21 96       	adiw	r28, 0x01	; 1
 56e:	10 17       	cp	r17, r16
 570:	d0 f3       	brcs	.-12     	; 0x566 <A7139_ReadFIFO+0x36>
 572:	41 9a       	sbi	0x08, 1	; 8
 574:	80 2f       	mov	r24, r16
 576:	df 91       	pop	r29
 578:	cf 91       	pop	r28
 57a:	1f 91       	pop	r17
 57c:	0f 91       	pop	r16
 57e:	08 95       	ret

00000580 <A7139_SetPackLen>:
 580:	0f 93       	push	r16
 582:	1f 93       	push	r17
 584:	08 2f       	mov	r16, r24
 586:	84 e1       	ldi	r24, 0x14	; 20
 588:	36 de       	rcall	.-916    	; 0x1f6 <StrobeCmd>
 58a:	10 e0       	ldi	r17, 0x00	; 0
 58c:	01 50       	subi	r16, 0x01	; 1
 58e:	10 40       	sbci	r17, 0x00	; 0
 590:	8d e0       	ldi	r24, 0x0D	; 13
 592:	b8 01       	movw	r22, r16
 594:	d8 dd       	rcall	.-1104   	; 0x146 <A7139_WritePageA>
 596:	8a e0       	ldi	r24, 0x0A	; 10
 598:	64 e0       	ldi	r22, 0x04	; 4
 59a:	70 e0       	ldi	r23, 0x00	; 0
 59c:	d4 dd       	rcall	.-1112   	; 0x146 <A7139_WritePageA>
 59e:	80 e0       	ldi	r24, 0x00	; 0
 5a0:	1f 91       	pop	r17
 5a2:	0f 91       	pop	r16
 5a4:	08 95       	ret

000005a6 <A7139_IsBatteryLow>:
 5a6:	1f 93       	push	r17
 5a8:	18 2f       	mov	r17, r24
 5aa:	88 30       	cpi	r24, 0x08	; 8
 5ac:	88 f4       	brcc	.+34     	; 0x5d0 <A7139_IsBatteryLow+0x2a>
 5ae:	84 e1       	ldi	r24, 0x14	; 20
 5b0:	22 de       	rcall	.-956    	; 0x1f6 <StrobeCmd>
 5b2:	61 2f       	mov	r22, r17
 5b4:	70 e0       	ldi	r23, 0x00	; 0
 5b6:	66 0f       	add	r22, r22
 5b8:	77 1f       	adc	r23, r23
 5ba:	61 62       	ori	r22, 0x21	; 33
 5bc:	7a 60       	ori	r23, 0x0A	; 10
 5be:	84 e0       	ldi	r24, 0x04	; 4
 5c0:	c2 dd       	rcall	.-1148   	; 0x146 <A7139_WritePageA>
 5c2:	88 e1       	ldi	r24, 0x18	; 24
 5c4:	8a 95       	dec	r24
 5c6:	f1 f7       	brne	.-4      	; 0x5c4 <A7139_IsBatteryLow+0x1e>
 5c8:	81 e0       	ldi	r24, 0x01	; 1
 5ca:	e0 dd       	rcall	.-1088   	; 0x18c <A7139_ReadPageA>
 5cc:	90 e0       	ldi	r25, 0x00	; 0
 5ce:	87 ff       	sbrs	r24, 7
 5d0:	91 e0       	ldi	r25, 0x01	; 1
 5d2:	89 2f       	mov	r24, r25
 5d4:	1f 91       	pop	r17
 5d6:	08 95       	ret

000005d8 <A7139_GetRSSI>:
 5d8:	cf 93       	push	r28
 5da:	df 93       	push	r29
 5dc:	88 e1       	ldi	r24, 0x18	; 24
 5de:	0b de       	rcall	.-1002   	; 0x1f6 <StrobeCmd>
 5e0:	8c e0       	ldi	r24, 0x0C	; 12
 5e2:	60 e0       	ldi	r22, 0x00	; 0
 5e4:	74 e4       	ldi	r23, 0x44	; 68
 5e6:	9d dd       	rcall	.-1222   	; 0x122 <A7139_WriteReg>
 5e8:	8f e0       	ldi	r24, 0x0F	; 15
 5ea:	a6 dd       	rcall	.-1204   	; 0x138 <A7139_ReadReg>
 5ec:	bc 01       	movw	r22, r24
 5ee:	61 60       	ori	r22, 0x01	; 1
 5f0:	8f e0       	ldi	r24, 0x0F	; 15
 5f2:	97 dd       	rcall	.-1234   	; 0x122 <A7139_WriteReg>
 5f4:	cf ef       	ldi	r28, 0xFF	; 255
 5f6:	df ef       	ldi	r29, 0xFF	; 255
 5f8:	8f e0       	ldi	r24, 0x0F	; 15
 5fa:	9e dd       	rcall	.-1220   	; 0x138 <A7139_ReadReg>
 5fc:	21 97       	sbiw	r28, 0x01	; 1
 5fe:	9f ef       	ldi	r25, 0xFF	; 255
 600:	cf 3f       	cpi	r28, 0xFF	; 255
 602:	d9 07       	cpc	r29, r25
 604:	11 f0       	breq	.+4      	; 0x60a <A7139_GetRSSI+0x32>
 606:	80 fd       	sbrc	r24, 0
 608:	f7 cf       	rjmp	.-18     	; 0x5f8 <A7139_GetRSSI+0x20>
 60a:	cd 2b       	or	r28, r29
 60c:	19 f4       	brne	.+6      	; 0x614 <A7139_GetRSSI+0x3c>
 60e:	c0 e0       	ldi	r28, 0x00	; 0
 610:	d0 e0       	ldi	r29, 0x00	; 0
 612:	04 c0       	rjmp	.+8      	; 0x61c <A7139_GetRSSI+0x44>
 614:	8b e0       	ldi	r24, 0x0B	; 11
 616:	90 dd       	rcall	.-1248   	; 0x138 <A7139_ReadReg>
 618:	ec 01       	movw	r28, r24
 61a:	d1 70       	andi	r29, 0x01	; 1
 61c:	84 e1       	ldi	r24, 0x14	; 20
 61e:	eb dd       	rcall	.-1066   	; 0x1f6 <StrobeCmd>
 620:	8c 2f       	mov	r24, r28
 622:	df 91       	pop	r29
 624:	cf 91       	pop	r28
 626:	08 95       	ret

00000628 <A7139_WOT>:
 628:	bb dd       	rcall	.-1162   	; 0x1a0 <A7139_RCOSC_Cal>
 62a:	84 30       	cpi	r24, 0x04	; 4
 62c:	99 f0       	breq	.+38     	; 0x654 <A7139_WOT+0x2c>
 62e:	84 e1       	ldi	r24, 0x14	; 20
 630:	e2 dd       	rcall	.-1084   	; 0x1f6 <StrobeCmd>
 632:	88 e0       	ldi	r24, 0x08	; 8
 634:	65 e4       	ldi	r22, 0x45	; 69
 636:	70 e0       	ldi	r23, 0x00	; 0
 638:	86 dd       	rcall	.-1268   	; 0x146 <A7139_WritePageA>
 63a:	81 e0       	ldi	r24, 0x01	; 1
 63c:	6f e7       	ldi	r22, 0x7F	; 127
 63e:	72 e0       	ldi	r23, 0x02	; 2
 640:	82 dd       	rcall	.-1276   	; 0x146 <A7139_WritePageA>
 642:	8d e0       	ldi	r24, 0x0D	; 13
 644:	60 e0       	ldi	r22, 0x00	; 0
 646:	7c e0       	ldi	r23, 0x0C	; 12
 648:	6c dd       	rcall	.-1320   	; 0x122 <A7139_WriteReg>
 64a:	8f e0       	ldi	r24, 0x0F	; 15
 64c:	60 ec       	ldi	r22, 0xC0	; 192
 64e:	72 e2       	ldi	r23, 0x22	; 34
 650:	68 dd       	rcall	.-1328   	; 0x122 <A7139_WriteReg>
 652:	80 e0       	ldi	r24, 0x00	; 0
 654:	08 95       	ret

00000656 <A7139_WOR_BySync>:
 656:	84 e1       	ldi	r24, 0x14	; 20
 658:	ce dd       	rcall	.-1124   	; 0x1f6 <StrobeCmd>
 65a:	88 e0       	ldi	r24, 0x08	; 8
 65c:	65 e4       	ldi	r22, 0x45	; 69
 65e:	70 e0       	ldi	r23, 0x00	; 0
 660:	72 dd       	rcall	.-1308   	; 0x146 <A7139_WritePageA>
 662:	81 e0       	ldi	r24, 0x01	; 1
 664:	66 e0       	ldi	r22, 0x06	; 6
 666:	7f ef       	ldi	r23, 0xFF	; 255
 668:	6e dd       	rcall	.-1316   	; 0x146 <A7139_WritePageA>
 66a:	9a dd       	rcall	.-1228   	; 0x1a0 <A7139_RCOSC_Cal>
 66c:	84 30       	cpi	r24, 0x04	; 4
 66e:	49 f0       	breq	.+18     	; 0x682 <A7139_WOR_BySync+0x2c>
 670:	82 e0       	ldi	r24, 0x02	; 2
 672:	60 e1       	ldi	r22, 0x10	; 16
 674:	78 ef       	ldi	r23, 0xF8	; 248
 676:	67 dd       	rcall	.-1330   	; 0x146 <A7139_WritePageA>
 678:	8f e0       	ldi	r24, 0x0F	; 15
 67a:	60 ec       	ldi	r22, 0xC0	; 192
 67c:	72 e2       	ldi	r23, 0x22	; 34
 67e:	51 dd       	rcall	.-1374   	; 0x122 <A7139_WriteReg>
 680:	80 e0       	ldi	r24, 0x00	; 0
 682:	08 95       	ret

00000684 <A7139_WOR_ByPreamble>:
 684:	84 e1       	ldi	r24, 0x14	; 20
 686:	b7 dd       	rcall	.-1170   	; 0x1f6 <StrobeCmd>
 688:	81 e3       	ldi	r24, 0x31	; 49
 68a:	8a 95       	dec	r24
 68c:	f1 f7       	brne	.-4      	; 0x68a <A7139_WOR_ByPreamble+0x6>
 68e:	88 e0       	ldi	r24, 0x08	; 8
 690:	67 e4       	ldi	r22, 0x47	; 71
 692:	70 e0       	ldi	r23, 0x00	; 0
 694:	58 dd       	rcall	.-1360   	; 0x146 <A7139_WritePageA>
 696:	81 e0       	ldi	r24, 0x01	; 1
 698:	60 e6       	ldi	r22, 0x60	; 96
 69a:	78 e9       	ldi	r23, 0x98	; 152
 69c:	54 dd       	rcall	.-1368   	; 0x146 <A7139_WritePageA>
 69e:	80 dd       	rcall	.-1280   	; 0x1a0 <A7139_RCOSC_Cal>
 6a0:	84 30       	cpi	r24, 0x04	; 4
 6a2:	49 f0       	breq	.+18     	; 0x6b6 <A7139_WOR_ByPreamble+0x32>
 6a4:	82 e0       	ldi	r24, 0x02	; 2
 6a6:	60 e3       	ldi	r22, 0x30	; 48
 6a8:	78 ef       	ldi	r23, 0xF8	; 248
 6aa:	4d dd       	rcall	.-1382   	; 0x146 <A7139_WritePageA>
 6ac:	8f e0       	ldi	r24, 0x0F	; 15
 6ae:	60 ec       	ldi	r22, 0xC0	; 192
 6b0:	72 e2       	ldi	r23, 0x22	; 34
 6b2:	37 dd       	rcall	.-1426   	; 0x122 <A7139_WriteReg>
 6b4:	80 e0       	ldi	r24, 0x00	; 0
 6b6:	08 95       	ret

000006b8 <A7139_SetPowerLevel>:
 6b8:	1f 93       	push	r17
 6ba:	18 2f       	mov	r17, r24
 6bc:	84 e1       	ldi	r24, 0x14	; 20
 6be:	9b dd       	rcall	.-1226   	; 0x1f6 <StrobeCmd>
 6c0:	81 e3       	ldi	r24, 0x31	; 49
 6c2:	8a 95       	dec	r24
 6c4:	f1 f7       	brne	.-4      	; 0x6c2 <A7139_SetPowerLevel+0xa>
 6c6:	e1 2f       	mov	r30, r17
 6c8:	f0 e0       	ldi	r31, 0x00	; 0
 6ca:	e9 30       	cpi	r30, 0x09	; 9
 6cc:	f1 05       	cpc	r31, r1
 6ce:	18 f4       	brcc	.+6      	; 0x6d6 <A7139_SetPowerLevel+0x1e>
 6d0:	e6 5e       	subi	r30, 0xE6	; 230
 6d2:	ff 4f       	sbci	r31, 0xFF	; 255
 6d4:	09 94       	ijmp
 6d6:	81 e0       	ldi	r24, 0x01	; 1
 6d8:	25 c0       	rjmp	.+74     	; 0x724 <A7139_SetPowerLevel+0x6c>
 6da:	80 e0       	ldi	r24, 0x00	; 0
 6dc:	61 e0       	ldi	r22, 0x01	; 1
 6de:	73 e0       	ldi	r23, 0x03	; 3
 6e0:	1f c0       	rjmp	.+62     	; 0x720 <A7139_SetPowerLevel+0x68>
 6e2:	80 e0       	ldi	r24, 0x00	; 0
 6e4:	69 e0       	ldi	r22, 0x09	; 9
 6e6:	73 e0       	ldi	r23, 0x03	; 3
 6e8:	1b c0       	rjmp	.+54     	; 0x720 <A7139_SetPowerLevel+0x68>
 6ea:	80 e0       	ldi	r24, 0x00	; 0
 6ec:	6a e0       	ldi	r22, 0x0A	; 10
 6ee:	73 e0       	ldi	r23, 0x03	; 3
 6f0:	17 c0       	rjmp	.+46     	; 0x720 <A7139_SetPowerLevel+0x68>
 6f2:	80 e0       	ldi	r24, 0x00	; 0
 6f4:	61 e6       	ldi	r22, 0x61	; 97
 6f6:	73 e0       	ldi	r23, 0x03	; 3
 6f8:	13 c0       	rjmp	.+38     	; 0x720 <A7139_SetPowerLevel+0x68>
 6fa:	80 e0       	ldi	r24, 0x00	; 0
 6fc:	6a e2       	ldi	r22, 0x2A	; 42
 6fe:	73 e0       	ldi	r23, 0x03	; 3
 700:	0f c0       	rjmp	.+30     	; 0x720 <A7139_SetPowerLevel+0x68>
 702:	80 e0       	ldi	r24, 0x00	; 0
 704:	6c e1       	ldi	r22, 0x1C	; 28
 706:	73 e0       	ldi	r23, 0x03	; 3
 708:	0b c0       	rjmp	.+22     	; 0x720 <A7139_SetPowerLevel+0x68>
 70a:	80 e0       	ldi	r24, 0x00	; 0
 70c:	66 e2       	ldi	r22, 0x26	; 38
 70e:	73 e0       	ldi	r23, 0x03	; 3
 710:	07 c0       	rjmp	.+14     	; 0x720 <A7139_SetPowerLevel+0x68>
 712:	80 e0       	ldi	r24, 0x00	; 0
 714:	6e e3       	ldi	r22, 0x3E	; 62
 716:	73 e0       	ldi	r23, 0x03	; 3
 718:	03 c0       	rjmp	.+6      	; 0x720 <A7139_SetPowerLevel+0x68>
 71a:	80 e0       	ldi	r24, 0x00	; 0
 71c:	6f e5       	ldi	r22, 0x5F	; 95
 71e:	73 e0       	ldi	r23, 0x03	; 3
 720:	22 dd       	rcall	.-1468   	; 0x166 <A7139_WritePageB>
 722:	80 e0       	ldi	r24, 0x00	; 0
 724:	1f 91       	pop	r17
 726:	08 95       	ret

00000728 <PortInit>:
#define T0_ON	{ TCCR0B|=1<<CS02; TIMSK0|=1<<TOIE0;}
#define T0_OFF	{ TCCR0B=0; TIMSK0&=~1<<TOIE0;}

void PortInit(void)
{
    DDRB = 0B00000100;		// PB0->GIO2
 728:	84 e0       	ldi	r24, 0x04	; 4
 72a:	84 b9       	out	0x04, r24	; 4
    PORTB= 0B00000000;
 72c:	15 b8       	out	0x05, r1	; 5
    PINB = 0x00;
 72e:	13 b8       	out	0x03, r1	; 3

    DDRD = 0B00000000;		// PD2->GIO1
 730:	1a b8       	out	0x0a, r1	; 10
    PORTD= 0B00000000;
 732:	1b b8       	out	0x0b, r1	; 11
    PIND = 0x00;
 734:	19 b8       	out	0x09, r1	; 9

    DDRC = 0B00000111;			
 736:	87 e0       	ldi	r24, 0x07	; 7
 738:	87 b9       	out	0x07, r24	; 7
    PORTC= 0B00000000;
 73a:	18 b8       	out	0x08, r1	; 8
    PINC = 0x00;
 73c:	16 b8       	out	0x06, r1	; 6
}
 73e:	08 95       	ret

00000740 <UartInit>:

void UartInit(void)
{
    UBRR0H = (F_CPU / BAUD / 16 - 1) / 256;
 740:	10 92 c5 00 	sts	0x00C5, r1
    UBRR0L = (F_CPU / BAUD / 16 - 1) % 256;
 744:	83 e0       	ldi	r24, 0x03	; 3
 746:	80 93 c4 00 	sts	0x00C4, r24
    UCSR0B = 1<<RXEN0 | 1<<TXEN0 | 1<<RXCIE0;
 74a:	88 e9       	ldi	r24, 0x98	; 152
 74c:	80 93 c1 00 	sts	0x00C1, r24
    UCSR0C = 1<<UCSZ00 | 1<<UCSZ01;
 750:	86 e0       	ldi	r24, 0x06	; 6
 752:	80 93 c2 00 	sts	0x00C2, r24
}
 756:	08 95       	ret

00000758 <U0Send>:
	}
    return A7139_ReadFIFO(buf);
}

void U0Send(unsigned char* data,unsigned char len)
{
 758:	58 2f       	mov	r21, r24
 75a:	28 2f       	mov	r18, r24
 75c:	39 2f       	mov	r19, r25
 75e:	f9 01       	movw	r30, r18
 760:	07 c0       	rjmp	.+14     	; 0x770 <U0Send+0x18>
    unsigned char i;
    for(i=0; i<len; i++)
    {
        while(!(UCSR0A & (1 << UDRE0)));
 762:	80 91 c0 00 	lds	r24, 0x00C0
 766:	85 ff       	sbrs	r24, 5
 768:	fc cf       	rjmp	.-8      	; 0x762 <U0Send+0xa>
        UDR0 = *(data++);
 76a:	81 91       	ld	r24, Z+
 76c:	80 93 c6 00 	sts	0x00C6, r24
}

void U0Send(unsigned char* data,unsigned char len)
{
    unsigned char i;
    for(i=0; i<len; i++)
 770:	8e 2f       	mov	r24, r30
 772:	85 1b       	sub	r24, r21
 774:	86 17       	cp	r24, r22
 776:	a8 f3       	brcs	.-22     	; 0x762 <U0Send+0xa>
    {
        while(!(UCSR0A & (1 << UDRE0)));
        UDR0 = *(data++);
    }
}
 778:	08 95       	ret

0000077a <__vector_18>:
	}
	U0Count = 0;
}

ISR(USART_RX_vect)
{
 77a:	1f 92       	push	r1
 77c:	0f 92       	push	r0
 77e:	0f b6       	in	r0, 0x3f	; 63
 780:	0f 92       	push	r0
 782:	11 24       	eor	r1, r1
 784:	8f 93       	push	r24
 786:	9f 93       	push	r25
 788:	ef 93       	push	r30
 78a:	ff 93       	push	r31
    unsigned char tmp;
    tmp = UDR0;
 78c:	90 91 c6 00 	lds	r25, 0x00C6
    uBuf[U0Count++] = tmp;
 790:	80 91 67 01 	lds	r24, 0x0167
 794:	e8 2f       	mov	r30, r24
 796:	f0 e0       	ldi	r31, 0x00	; 0
 798:	ed 5a       	subi	r30, 0xAD	; 173
 79a:	fe 4f       	sbci	r31, 0xFE	; 254
 79c:	90 83       	st	Z, r25
 79e:	8f 5f       	subi	r24, 0xFF	; 255
 7a0:	80 93 67 01 	sts	0x0167, r24
	T2_ON;
 7a4:	80 91 b1 00 	lds	r24, 0x00B1
 7a8:	85 60       	ori	r24, 0x05	; 5
 7aa:	80 93 b1 00 	sts	0x00B1, r24
 7ae:	80 91 70 00 	lds	r24, 0x0070
 7b2:	81 60       	ori	r24, 0x01	; 1
 7b4:	80 93 70 00 	sts	0x0070, r24
 7b8:	10 92 b2 00 	sts	0x00B2, r1
    if(U0Count >= 16)
 7bc:	80 91 67 01 	lds	r24, 0x0167
 7c0:	80 31       	cpi	r24, 0x10	; 16
 7c2:	10 f0       	brcs	.+4      	; 0x7c8 <__vector_18+0x4e>
        U0Count = 0;
 7c4:	10 92 67 01 	sts	0x0167, r1
}
 7c8:	ff 91       	pop	r31
 7ca:	ef 91       	pop	r30
 7cc:	9f 91       	pop	r25
 7ce:	8f 91       	pop	r24
 7d0:	0f 90       	pop	r0
 7d2:	0f be       	out	0x3f, r0	; 63
 7d4:	0f 90       	pop	r0
 7d6:	1f 90       	pop	r1
 7d8:	18 95       	reti

000007da <__vector_16>:
volatile unsigned char total = 15;
unsigned char count = 0;
volatile unsigned char T0Flag = 0;

ISR(TIMER0_OVF_vect)		// 8.85ms
{
 7da:	1f 92       	push	r1
 7dc:	0f 92       	push	r0
 7de:	0f b6       	in	r0, 0x3f	; 63
 7e0:	0f 92       	push	r0
 7e2:	11 24       	eor	r1, r1
 7e4:	8f 93       	push	r24
 7e6:	9f 93       	push	r25
    if(count++ > total)
 7e8:	80 91 69 01 	lds	r24, 0x0169
 7ec:	90 91 51 01 	lds	r25, 0x0151
 7f0:	8f 5f       	subi	r24, 0xFF	; 255
 7f2:	80 93 69 01 	sts	0x0169, r24
 7f6:	81 50       	subi	r24, 0x01	; 1
 7f8:	98 17       	cp	r25, r24
 7fa:	a8 f4       	brcc	.+42     	; 0x826 <__vector_16+0x4c>
    {
        count = 0;
 7fc:	10 92 69 01 	sts	0x0169, r1
        if(T0Flag)			// Ω” ’º‰∏Ù
 800:	80 91 6a 01 	lds	r24, 0x016A
 804:	88 23       	and	r24, r24
 806:	11 f0       	breq	.+4      	; 0x80c <__vector_16+0x32>
            total = 6;
 808:	86 e0       	ldi	r24, 0x06	; 6
 80a:	01 c0       	rjmp	.+2      	; 0x80e <__vector_16+0x34>
        else
            total = 15;
 80c:	8f e0       	ldi	r24, 0x0F	; 15
 80e:	80 93 51 01 	sts	0x0151, r24
        T0Flag ^= 0x01;
 812:	80 91 6a 01 	lds	r24, 0x016A
 816:	91 e0       	ldi	r25, 0x01	; 1
 818:	89 27       	eor	r24, r25
 81a:	80 93 6a 01 	sts	0x016A, r24
		LED_BLINK;
 81e:	88 b1       	in	r24, 0x08	; 8
 820:	94 e0       	ldi	r25, 0x04	; 4
 822:	89 27       	eor	r24, r25
 824:	88 b9       	out	0x08, r24	; 8
    }
}
 826:	9f 91       	pop	r25
 828:	8f 91       	pop	r24
 82a:	0f 90       	pop	r0
 82c:	0f be       	out	0x3f, r0	; 63
 82e:	0f 90       	pop	r0
 830:	1f 90       	pop	r1
 832:	18 95       	reti

00000834 <__vector_13>:

ISR(TIMER1_OVF_vect)		// 9s
{
 834:	1f 92       	push	r1
 836:	0f 92       	push	r0
 838:	0f b6       	in	r0, 0x3f	; 63
 83a:	0f 92       	push	r0
 83c:	11 24       	eor	r1, r1
 83e:	8f 93       	push	r24
 840:	ef 93       	push	r30
 842:	ff 93       	push	r31
	T1_OFF;
 844:	10 92 81 00 	sts	0x0081, r1
 848:	ef e6       	ldi	r30, 0x6F	; 111
 84a:	f0 e0       	ldi	r31, 0x00	; 0
 84c:	80 81       	ld	r24, Z
 84e:	8e 7f       	andi	r24, 0xFE	; 254
 850:	80 83       	st	Z, r24
	T0_OFF;
 852:	15 bc       	out	0x25, r1	; 37
 854:	ee e6       	ldi	r30, 0x6E	; 110
 856:	f0 e0       	ldi	r31, 0x00	; 0
 858:	80 81       	ld	r24, Z
 85a:	8e 7f       	andi	r24, 0xFE	; 254
 85c:	80 83       	st	Z, r24
	T0Flag = sFlag = 0;
 85e:	10 92 52 01 	sts	0x0152, r1
 862:	80 91 52 01 	lds	r24, 0x0152
 866:	80 93 6a 01 	sts	0x016A, r24
	LED_OFF;
 86a:	42 98       	cbi	0x08, 2	; 8
}
 86c:	ff 91       	pop	r31
 86e:	ef 91       	pop	r30
 870:	8f 91       	pop	r24
 872:	0f 90       	pop	r0
 874:	0f be       	out	0x3f, r0	; 63
 876:	0f 90       	pop	r0
 878:	1f 90       	pop	r1
 87a:	18 95       	reti

0000087c <__vector_9>:
volatile unsigned char U0Count = 0;

volatile unsigned char U0Ready = 0;

ISR(TIMER2_OVF_vect)			// UART0 timeout
{
 87c:	1f 92       	push	r1
 87e:	0f 92       	push	r0
 880:	0f b6       	in	r0, 0x3f	; 63
 882:	0f 92       	push	r0
 884:	11 24       	eor	r1, r1
 886:	8f 93       	push	r24
 888:	af 93       	push	r26
 88a:	bf 93       	push	r27
 88c:	ef 93       	push	r30
 88e:	ff 93       	push	r31
    T2_OFF;
 890:	10 92 b1 00 	sts	0x00B1, r1
 894:	80 91 70 00 	lds	r24, 0x0070
 898:	8e 7f       	andi	r24, 0xFE	; 254
 89a:	80 93 70 00 	sts	0x0070, r24
	if(U0Count == 7)
 89e:	80 91 67 01 	lds	r24, 0x0167
 8a2:	87 30       	cpi	r24, 0x07	; 7
 8a4:	59 f4       	brne	.+22     	; 0x8bc <__vector_9+0x40>
	{
		memcpy(tBuf,uBuf,7);
 8a6:	aa e4       	ldi	r26, 0x4A	; 74
 8a8:	b1 e0       	ldi	r27, 0x01	; 1
 8aa:	e3 e5       	ldi	r30, 0x53	; 83
 8ac:	f1 e0       	ldi	r31, 0x01	; 1
 8ae:	01 90       	ld	r0, Z+
 8b0:	0d 92       	st	X+, r0
 8b2:	81 50       	subi	r24, 0x01	; 1
 8b4:	e1 f7       	brne	.-8      	; 0x8ae <__vector_9+0x32>
		U0Ready = 1;
 8b6:	81 e0       	ldi	r24, 0x01	; 1
 8b8:	80 93 68 01 	sts	0x0168, r24
	}
	U0Count = 0;
 8bc:	10 92 67 01 	sts	0x0167, r1
}
 8c0:	ff 91       	pop	r31
 8c2:	ef 91       	pop	r30
 8c4:	bf 91       	pop	r27
 8c6:	af 91       	pop	r26
 8c8:	8f 91       	pop	r24
 8ca:	0f 90       	pop	r0
 8cc:	0f be       	out	0x3f, r0	; 63
 8ce:	0f 90       	pop	r0
 8d0:	1f 90       	pop	r1
 8d2:	18 95       	reti

000008d4 <RecvData>:
    _delay_us(10);
    while(GIO2);
}
volatile unsigned char sFlag = 0;
unsigned char RecvData(unsigned char *buf)
{
 8d4:	cf 93       	push	r28
 8d6:	df 93       	push	r29
 8d8:	ec 01       	movw	r28, r24
    StrobeCmd(CMD_RX);
 8da:	88 e1       	ldi	r24, 0x18	; 24
 8dc:	8c dc       	rcall	.-1768   	; 0x1f6 <StrobeCmd>
 8de:	88 e1       	ldi	r24, 0x18	; 24
 8e0:	8a 95       	dec	r24
 8e2:	f1 f7       	brne	.-4      	; 0x8e0 <RecvData+0xc>
 8e4:	04 c0       	rjmp	.+8      	; 0x8ee <RecvData+0x1a>
    _delay_us(10);
    while(GIO2)
	{
		if(sFlag==0)
 8e6:	80 91 52 01 	lds	r24, 0x0152
 8ea:	88 23       	and	r24, r24
 8ec:	21 f0       	breq	.+8      	; 0x8f6 <RecvData+0x22>
volatile unsigned char sFlag = 0;
unsigned char RecvData(unsigned char *buf)
{
    StrobeCmd(CMD_RX);
    _delay_us(10);
    while(GIO2)
 8ee:	18 99       	sbic	0x03, 0	; 3
 8f0:	fa cf       	rjmp	.-12     	; 0x8e6 <RecvData+0x12>
	{
		if(sFlag==0)
			return 0;
	}
    return A7139_ReadFIFO(buf);
 8f2:	ce 01       	movw	r24, r28
 8f4:	1d de       	rcall	.-966    	; 0x530 <A7139_ReadFIFO>
}
 8f6:	df 91       	pop	r29
 8f8:	cf 91       	pop	r28
 8fa:	08 95       	ret

000008fc <A7139Send>:
    UCSR0C = 1<<UCSZ00 | 1<<UCSZ01;
}

void A7139Send(unsigned char *buf,unsigned char len)
{
    A7139_WriteFIFO(buf,len);
 8fc:	fa dd       	rcall	.-1036   	; 0x4f2 <A7139_WriteFIFO>
    StrobeCmd(CMD_TX);
 8fe:	8a e1       	ldi	r24, 0x1A	; 26
 900:	7a dc       	rcall	.-1804   	; 0x1f6 <StrobeCmd>
 902:	88 e1       	ldi	r24, 0x18	; 24
 904:	8a 95       	dec	r24
 906:	f1 f7       	brne	.-4      	; 0x904 <A7139Send+0x8>
    _delay_us(10);
    while(GIO2);
 908:	18 99       	sbic	0x03, 0	; 3
 90a:	fe cf       	rjmp	.-4      	; 0x908 <A7139Send+0xc>
}
 90c:	08 95       	ret

0000090e <main>:
	T0Flag = sFlag = 0;
	LED_OFF;
}

int main(void)
{
 90e:	cf 92       	push	r12
 910:	df 92       	push	r13
 912:	ef 92       	push	r14
 914:	ff 92       	push	r15
 916:	0f 93       	push	r16
 918:	1f 93       	push	r17
 91a:	df 93       	push	r29
 91c:	cf 93       	push	r28
 91e:	cd b7       	in	r28, 0x3d	; 61
 920:	de b7       	in	r29, 0x3e	; 62
 922:	64 97       	sbiw	r28, 0x14	; 20
 924:	0f b6       	in	r0, 0x3f	; 63
 926:	f8 94       	cli
 928:	de bf       	out	0x3e, r29	; 62
 92a:	0f be       	out	0x3f, r0	; 63
 92c:	cd bf       	out	0x3d, r28	; 61
	unsigned char rBuf[16] = {0};
 92e:	fe 01       	movw	r30, r28
 930:	35 96       	adiw	r30, 0x05	; 5
 932:	80 e1       	ldi	r24, 0x10	; 16
 934:	df 01       	movw	r26, r30
 936:	1d 92       	st	X+, r1
 938:	8a 95       	dec	r24
 93a:	e9 f7       	brne	.-6      	; 0x936 <main+0x28>
    unsigned char tmp = 0;
	unsigned char rLen = 0;
	unsigned char cid[4] = {0};
 93c:	19 82       	std	Y+1, r1	; 0x01
 93e:	1a 82       	std	Y+2, r1	; 0x02
 940:	1b 82       	std	Y+3, r1	; 0x03
 942:	1c 82       	std	Y+4, r1	; 0x04
    cli();
 944:	f8 94       	cli
    PortInit();
 946:	f0 de       	rcall	.-544    	; 0x728 <PortInit>
    PINC = 0x00;
}

void UartInit(void)
{
    UBRR0H = (F_CPU / BAUD / 16 - 1) / 256;
 948:	10 92 c5 00 	sts	0x00C5, r1
    UBRR0L = (F_CPU / BAUD / 16 - 1) % 256;
 94c:	83 e0       	ldi	r24, 0x03	; 3
 94e:	80 93 c4 00 	sts	0x00C4, r24
    UCSR0B = 1<<RXEN0 | 1<<TXEN0 | 1<<RXCIE0;
 952:	88 e9       	ldi	r24, 0x98	; 152
 954:	80 93 c1 00 	sts	0x00C1, r24
    UCSR0C = 1<<UCSZ00 | 1<<UCSZ01;
 958:	86 e0       	ldi	r24, 0x06	; 6
 95a:	80 93 c2 00 	sts	0x00C2, r24
	unsigned char rLen = 0;
	unsigned char cid[4] = {0};
    cli();
    PortInit();
    UartInit();
	LED_BLINK;
 95e:	88 b1       	in	r24, 0x08	; 8
 960:	94 e0       	ldi	r25, 0x04	; 4
 962:	89 27       	eor	r24, r25
 964:	88 b9       	out	0x08, r24	; 8
 966:	80 ed       	ldi	r24, 0xD0	; 208
 968:	97 e0       	ldi	r25, 0x07	; 7
    milliseconds can be achieved.
 */
void
_delay_loop_2(uint16_t __count)
{
	__asm__ volatile (
 96a:	28 eb       	ldi	r18, 0xB8	; 184
 96c:	30 e0       	ldi	r19, 0x00	; 0
 96e:	f9 01       	movw	r30, r18
 970:	31 97       	sbiw	r30, 0x01	; 1
 972:	f1 f7       	brne	.-4      	; 0x970 <main+0x62>
		__ticks = (uint16_t) (__ms * 10.0);
		while(__ticks)
		{
			// wait 1/10 ms
			_delay_loop_2(((F_CPU) / 4e3) / 10);
			__ticks --;
 974:	01 97       	sbiw	r24, 0x01	; 1
		__ticks = 1;
	else if (__tmp > 65535)
	{
		//	__ticks = requested delay in 1/10 ms
		__ticks = (uint16_t) (__ms * 10.0);
		while(__ticks)
 976:	d9 f7       	brne	.-10     	; 0x96e <main+0x60>
	_delay_ms(200);
	LED_BLINK;
 978:	88 b1       	in	r24, 0x08	; 8
 97a:	94 e0       	ldi	r25, 0x04	; 4
 97c:	89 27       	eor	r24, r25
 97e:	88 b9       	out	0x08, r24	; 8
 980:	08 eb       	ldi	r16, 0xB8	; 184
 982:	10 e0       	ldi	r17, 0x00	; 0
	
    do
    {
        tmp = A7139_Init(470.001f); 		// A7139≥ı ºªØ
 984:	61 e2       	ldi	r22, 0x21	; 33
 986:	70 e0       	ldi	r23, 0x00	; 0
 988:	8b ee       	ldi	r24, 0xEB	; 235
 98a:	93 e4       	ldi	r25, 0x43	; 67
 98c:	58 dc       	rcall	.-1872   	; 0x23e <A7139_Init>
 98e:	28 ee       	ldi	r18, 0xE8	; 232
 990:	33 e0       	ldi	r19, 0x03	; 3
 992:	f8 01       	movw	r30, r16
 994:	31 97       	sbiw	r30, 0x01	; 1
 996:	f1 f7       	brne	.-4      	; 0x994 <main+0x86>
		{
			// wait 1/10 ms
			_delay_loop_2(((F_CPU) / 4e3) / 10);
			__ticks --;
 998:	21 50       	subi	r18, 0x01	; 1
 99a:	30 40       	sbci	r19, 0x00	; 0
		__ticks = 1;
	else if (__tmp > 65535)
	{
		//	__ticks = requested delay in 1/10 ms
		__ticks = (uint16_t) (__ms * 10.0);
		while(__ticks)
 99c:	d1 f7       	brne	.-12     	; 0x992 <main+0x84>
        _delay_ms(100);
    }while(tmp);
 99e:	88 23       	and	r24, r24
 9a0:	89 f7       	brne	.-30     	; 0x984 <main+0x76>
    A7139_SetPowerLevel(8);		// π¶¬ …Ë÷√∫Ø ˝£¨≤Œ ˝∑∂Œß0-8£¨0◊Ó–°π¶¬ £¨8π¶¬ ◊Ó¥Û
 9a2:	88 e0       	ldi	r24, 0x08	; 8
 9a4:	89 de       	rcall	.-750    	; 0x6b8 <A7139_SetPowerLevel>
    A7139_SetPackLen(7);
 9a6:	87 e0       	ldi	r24, 0x07	; 7
 9a8:	eb dd       	rcall	.-1066   	; 0x580 <A7139_SetPackLen>
	A7139_ReadCID(cid);
 9aa:	8e 01       	movw	r16, r28
 9ac:	0f 5f       	subi	r16, 0xFF	; 255
 9ae:	1f 4f       	sbci	r17, 0xFF	; 255
 9b0:	c8 01       	movw	r24, r16
 9b2:	3a dd       	rcall	.-1420   	; 0x428 <A7139_ReadCID>
	U0Send(cid,4);
 9b4:	c8 01       	movw	r24, r16
 9b6:	64 e0       	ldi	r22, 0x04	; 4
 9b8:	cf de       	rcall	.-610    	; 0x758 <U0Send>
	sei();
 9ba:	78 94       	sei
				StrobeCmd(CMD_RX);
				while(!GIO1 && T0Flag);
				{
					if(T0Flag)
					{
						if((rLen=RecvData(rBuf))>0)
 9bc:	95 e0       	ldi	r25, 0x05	; 5
 9be:	e9 2e       	mov	r14, r25
 9c0:	f1 2c       	mov	r15, r1
 9c2:	ec 0e       	add	r14, r28
 9c4:	fd 1e       	adc	r15, r29
		if(U0Ready)
		{

			if(tBuf[0]==0xFE && tBuf[6]==0xFF && tBuf[1]==0x07)
			{
				T1_ON;
 9c6:	c1 2c       	mov	r12, r1
 9c8:	80 e4       	ldi	r24, 0x40	; 64
 9ca:	d8 2e       	mov	r13, r24
				T0_ON;
				sFlag = 1;
 9cc:	11 e0       	ldi	r17, 0x01	; 1
 9ce:	24 c0       	rjmp	.+72     	; 0xa18 <main+0x10a>
    {
		while(sFlag)
		{
			while(T0Flag)
			{
				StrobeCmd(CMD_RX);
 9d0:	88 e1       	ldi	r24, 0x18	; 24
 9d2:	11 dc       	rcall	.-2014   	; 0x1f6 <StrobeCmd>
				while(!GIO1 && T0Flag);
 9d4:	4a 99       	sbic	0x09, 2	; 9
 9d6:	04 c0       	rjmp	.+8      	; 0x9e0 <main+0xd2>
 9d8:	80 91 6a 01 	lds	r24, 0x016A
 9dc:	88 23       	and	r24, r24
 9de:	d1 f7       	brne	.-12     	; 0x9d4 <main+0xc6>
				{
					if(T0Flag)
 9e0:	80 91 6a 01 	lds	r24, 0x016A
 9e4:	88 23       	and	r24, r24
 9e6:	71 f0       	breq	.+28     	; 0xa04 <main+0xf6>
					{
						if((rLen=RecvData(rBuf))>0)
 9e8:	c7 01       	movw	r24, r14
 9ea:	74 df       	rcall	.-280    	; 0x8d4 <RecvData>
 9ec:	08 2f       	mov	r16, r24
 9ee:	88 23       	and	r24, r24
 9f0:	49 f0       	breq	.+18     	; 0xa04 <main+0xf6>
						{
							U0Send(rBuf,rLen);
 9f2:	c7 01       	movw	r24, r14
 9f4:	60 2f       	mov	r22, r16
 9f6:	b0 de       	rcall	.-672    	; 0x758 <U0Send>
							memset(rBuf,0x00,rLen);
 9f8:	c7 01       	movw	r24, r14
 9fa:	60 e0       	ldi	r22, 0x00	; 0
 9fc:	70 e0       	ldi	r23, 0x00	; 0
 9fe:	40 2f       	mov	r20, r16
 a00:	50 e0       	ldi	r21, 0x00	; 0
 a02:	4b d2       	rcall	.+1174   	; 0xe9a <memset>
						}
					}
				}
				StrobeCmd(CMD_STBY);
 a04:	84 e1       	ldi	r24, 0x14	; 20
 a06:	f7 db       	rcall	.-2066   	; 0x1f6 <StrobeCmd>

    while(1)
    {
		while(sFlag)
		{
			while(T0Flag)
 a08:	80 91 6a 01 	lds	r24, 0x016A
 a0c:	88 23       	and	r24, r24
 a0e:	01 f7       	brne	.-64     	; 0x9d0 <main+0xc2>
						}
					}
				}
				StrobeCmd(CMD_STBY);
			}
			A7139Send(tBuf,7);
 a10:	8a e4       	ldi	r24, 0x4A	; 74
 a12:	91 e0       	ldi	r25, 0x01	; 1
 a14:	67 e0       	ldi	r22, 0x07	; 7
 a16:	72 df       	rcall	.-284    	; 0x8fc <A7139Send>
	U0Send(cid,4);
	sei();

    while(1)
    {
		while(sFlag)
 a18:	80 91 52 01 	lds	r24, 0x0152
 a1c:	88 23       	and	r24, r24
 a1e:	a1 f7       	brne	.-24     	; 0xa08 <main+0xfa>
				}
				StrobeCmd(CMD_STBY);
			}
			A7139Send(tBuf,7);
		}
		if(U0Ready)
 a20:	80 91 68 01 	lds	r24, 0x0168
 a24:	88 23       	and	r24, r24
 a26:	c1 f3       	breq	.-16     	; 0xa18 <main+0x10a>
		{

			if(tBuf[0]==0xFE && tBuf[6]==0xFF && tBuf[1]==0x07)
 a28:	80 91 4a 01 	lds	r24, 0x014A
 a2c:	8e 3f       	cpi	r24, 0xFE	; 254
 a2e:	01 f5       	brne	.+64     	; 0xa70 <main+0x162>
 a30:	80 91 50 01 	lds	r24, 0x0150
 a34:	8f 3f       	cpi	r24, 0xFF	; 255
 a36:	e1 f4       	brne	.+56     	; 0xa70 <main+0x162>
 a38:	80 91 4b 01 	lds	r24, 0x014B
 a3c:	87 30       	cpi	r24, 0x07	; 7
 a3e:	c1 f4       	brne	.+48     	; 0xa70 <main+0x162>
			{
				T1_ON;
 a40:	80 91 81 00 	lds	r24, 0x0081
 a44:	85 60       	ori	r24, 0x05	; 5
 a46:	80 93 81 00 	sts	0x0081, r24
 a4a:	80 91 6f 00 	lds	r24, 0x006F
 a4e:	81 60       	ori	r24, 0x01	; 1
 a50:	80 93 6f 00 	sts	0x006F, r24
 a54:	d0 92 85 00 	sts	0x0085, r13
 a58:	c0 92 84 00 	sts	0x0084, r12
				T0_ON;
 a5c:	85 b5       	in	r24, 0x25	; 37
 a5e:	84 60       	ori	r24, 0x04	; 4
 a60:	85 bd       	out	0x25, r24	; 37
 a62:	80 91 6e 00 	lds	r24, 0x006E
 a66:	81 60       	ori	r24, 0x01	; 1
 a68:	80 93 6e 00 	sts	0x006E, r24
				sFlag = 1;
 a6c:	10 93 52 01 	sts	0x0152, r17
			}
			U0Ready = 0;
 a70:	10 92 68 01 	sts	0x0168, r1
 a74:	d1 cf       	rjmp	.-94     	; 0xa18 <main+0x10a>

00000a76 <__subsf3>:
 a76:	50 58       	subi	r21, 0x80	; 128

00000a78 <__addsf3>:
 a78:	bb 27       	eor	r27, r27
 a7a:	aa 27       	eor	r26, r26
 a7c:	0e d0       	rcall	.+28     	; 0xa9a <__addsf3x>
 a7e:	70 c1       	rjmp	.+736    	; 0xd60 <__fp_round>
 a80:	61 d1       	rcall	.+706    	; 0xd44 <__fp_pscA>
 a82:	30 f0       	brcs	.+12     	; 0xa90 <__addsf3+0x18>
 a84:	66 d1       	rcall	.+716    	; 0xd52 <__fp_pscB>
 a86:	20 f0       	brcs	.+8      	; 0xa90 <__addsf3+0x18>
 a88:	31 f4       	brne	.+12     	; 0xa96 <__addsf3+0x1e>
 a8a:	9f 3f       	cpi	r25, 0xFF	; 255
 a8c:	11 f4       	brne	.+4      	; 0xa92 <__addsf3+0x1a>
 a8e:	1e f4       	brtc	.+6      	; 0xa96 <__addsf3+0x1e>
 a90:	56 c1       	rjmp	.+684    	; 0xd3e <__fp_nan>
 a92:	0e f4       	brtc	.+2      	; 0xa96 <__addsf3+0x1e>
 a94:	e0 95       	com	r30
 a96:	e7 fb       	bst	r30, 7
 a98:	4c c1       	rjmp	.+664    	; 0xd32 <__fp_inf>

00000a9a <__addsf3x>:
 a9a:	e9 2f       	mov	r30, r25
 a9c:	72 d1       	rcall	.+740    	; 0xd82 <__fp_split3>
 a9e:	80 f3       	brcs	.-32     	; 0xa80 <__addsf3+0x8>
 aa0:	ba 17       	cp	r27, r26
 aa2:	62 07       	cpc	r22, r18
 aa4:	73 07       	cpc	r23, r19
 aa6:	84 07       	cpc	r24, r20
 aa8:	95 07       	cpc	r25, r21
 aaa:	18 f0       	brcs	.+6      	; 0xab2 <__addsf3x+0x18>
 aac:	71 f4       	brne	.+28     	; 0xaca <__addsf3x+0x30>
 aae:	9e f5       	brtc	.+102    	; 0xb16 <__addsf3x+0x7c>
 ab0:	8a c1       	rjmp	.+788    	; 0xdc6 <__fp_zero>
 ab2:	0e f4       	brtc	.+2      	; 0xab6 <__addsf3x+0x1c>
 ab4:	e0 95       	com	r30
 ab6:	0b 2e       	mov	r0, r27
 ab8:	ba 2f       	mov	r27, r26
 aba:	a0 2d       	mov	r26, r0
 abc:	0b 01       	movw	r0, r22
 abe:	b9 01       	movw	r22, r18
 ac0:	90 01       	movw	r18, r0
 ac2:	0c 01       	movw	r0, r24
 ac4:	ca 01       	movw	r24, r20
 ac6:	a0 01       	movw	r20, r0
 ac8:	11 24       	eor	r1, r1
 aca:	ff 27       	eor	r31, r31
 acc:	59 1b       	sub	r21, r25
 ace:	99 f0       	breq	.+38     	; 0xaf6 <__addsf3x+0x5c>
 ad0:	59 3f       	cpi	r21, 0xF9	; 249
 ad2:	50 f4       	brcc	.+20     	; 0xae8 <__addsf3x+0x4e>
 ad4:	50 3e       	cpi	r21, 0xE0	; 224
 ad6:	68 f1       	brcs	.+90     	; 0xb32 <__addsf3x+0x98>
 ad8:	1a 16       	cp	r1, r26
 ada:	f0 40       	sbci	r31, 0x00	; 0
 adc:	a2 2f       	mov	r26, r18
 ade:	23 2f       	mov	r18, r19
 ae0:	34 2f       	mov	r19, r20
 ae2:	44 27       	eor	r20, r20
 ae4:	58 5f       	subi	r21, 0xF8	; 248
 ae6:	f3 cf       	rjmp	.-26     	; 0xace <__addsf3x+0x34>
 ae8:	46 95       	lsr	r20
 aea:	37 95       	ror	r19
 aec:	27 95       	ror	r18
 aee:	a7 95       	ror	r26
 af0:	f0 40       	sbci	r31, 0x00	; 0
 af2:	53 95       	inc	r21
 af4:	c9 f7       	brne	.-14     	; 0xae8 <__addsf3x+0x4e>
 af6:	7e f4       	brtc	.+30     	; 0xb16 <__addsf3x+0x7c>
 af8:	1f 16       	cp	r1, r31
 afa:	ba 0b       	sbc	r27, r26
 afc:	62 0b       	sbc	r22, r18
 afe:	73 0b       	sbc	r23, r19
 b00:	84 0b       	sbc	r24, r20
 b02:	ba f0       	brmi	.+46     	; 0xb32 <__addsf3x+0x98>
 b04:	91 50       	subi	r25, 0x01	; 1
 b06:	a1 f0       	breq	.+40     	; 0xb30 <__addsf3x+0x96>
 b08:	ff 0f       	add	r31, r31
 b0a:	bb 1f       	adc	r27, r27
 b0c:	66 1f       	adc	r22, r22
 b0e:	77 1f       	adc	r23, r23
 b10:	88 1f       	adc	r24, r24
 b12:	c2 f7       	brpl	.-16     	; 0xb04 <__addsf3x+0x6a>
 b14:	0e c0       	rjmp	.+28     	; 0xb32 <__addsf3x+0x98>
 b16:	ba 0f       	add	r27, r26
 b18:	62 1f       	adc	r22, r18
 b1a:	73 1f       	adc	r23, r19
 b1c:	84 1f       	adc	r24, r20
 b1e:	48 f4       	brcc	.+18     	; 0xb32 <__addsf3x+0x98>
 b20:	87 95       	ror	r24
 b22:	77 95       	ror	r23
 b24:	67 95       	ror	r22
 b26:	b7 95       	ror	r27
 b28:	f7 95       	ror	r31
 b2a:	9e 3f       	cpi	r25, 0xFE	; 254
 b2c:	08 f0       	brcs	.+2      	; 0xb30 <__addsf3x+0x96>
 b2e:	b3 cf       	rjmp	.-154    	; 0xa96 <__addsf3+0x1e>
 b30:	93 95       	inc	r25
 b32:	88 0f       	add	r24, r24
 b34:	08 f0       	brcs	.+2      	; 0xb38 <__addsf3x+0x9e>
 b36:	99 27       	eor	r25, r25
 b38:	ee 0f       	add	r30, r30
 b3a:	97 95       	ror	r25
 b3c:	87 95       	ror	r24
 b3e:	08 95       	ret

00000b40 <__cmpsf2>:
 b40:	d4 d0       	rcall	.+424    	; 0xcea <__fp_cmp>
 b42:	08 f4       	brcc	.+2      	; 0xb46 <__cmpsf2+0x6>
 b44:	81 e0       	ldi	r24, 0x01	; 1
 b46:	08 95       	ret

00000b48 <__divsf3>:
 b48:	0c d0       	rcall	.+24     	; 0xb62 <__divsf3x>
 b4a:	0a c1       	rjmp	.+532    	; 0xd60 <__fp_round>
 b4c:	02 d1       	rcall	.+516    	; 0xd52 <__fp_pscB>
 b4e:	40 f0       	brcs	.+16     	; 0xb60 <__divsf3+0x18>
 b50:	f9 d0       	rcall	.+498    	; 0xd44 <__fp_pscA>
 b52:	30 f0       	brcs	.+12     	; 0xb60 <__divsf3+0x18>
 b54:	21 f4       	brne	.+8      	; 0xb5e <__divsf3+0x16>
 b56:	5f 3f       	cpi	r21, 0xFF	; 255
 b58:	19 f0       	breq	.+6      	; 0xb60 <__divsf3+0x18>
 b5a:	eb c0       	rjmp	.+470    	; 0xd32 <__fp_inf>
 b5c:	51 11       	cpse	r21, r1
 b5e:	34 c1       	rjmp	.+616    	; 0xdc8 <__fp_szero>
 b60:	ee c0       	rjmp	.+476    	; 0xd3e <__fp_nan>

00000b62 <__divsf3x>:
 b62:	0f d1       	rcall	.+542    	; 0xd82 <__fp_split3>
 b64:	98 f3       	brcs	.-26     	; 0xb4c <__divsf3+0x4>

00000b66 <__divsf3_pse>:
 b66:	99 23       	and	r25, r25
 b68:	c9 f3       	breq	.-14     	; 0xb5c <__divsf3+0x14>
 b6a:	55 23       	and	r21, r21
 b6c:	b1 f3       	breq	.-20     	; 0xb5a <__divsf3+0x12>
 b6e:	95 1b       	sub	r25, r21
 b70:	55 0b       	sbc	r21, r21
 b72:	bb 27       	eor	r27, r27
 b74:	aa 27       	eor	r26, r26
 b76:	62 17       	cp	r22, r18
 b78:	73 07       	cpc	r23, r19
 b7a:	84 07       	cpc	r24, r20
 b7c:	38 f0       	brcs	.+14     	; 0xb8c <__divsf3_pse+0x26>
 b7e:	9f 5f       	subi	r25, 0xFF	; 255
 b80:	5f 4f       	sbci	r21, 0xFF	; 255
 b82:	22 0f       	add	r18, r18
 b84:	33 1f       	adc	r19, r19
 b86:	44 1f       	adc	r20, r20
 b88:	aa 1f       	adc	r26, r26
 b8a:	a9 f3       	breq	.-22     	; 0xb76 <__divsf3_pse+0x10>
 b8c:	33 d0       	rcall	.+102    	; 0xbf4 <__divsf3_pse+0x8e>
 b8e:	0e 2e       	mov	r0, r30
 b90:	3a f0       	brmi	.+14     	; 0xba0 <__divsf3_pse+0x3a>
 b92:	e0 e8       	ldi	r30, 0x80	; 128
 b94:	30 d0       	rcall	.+96     	; 0xbf6 <__divsf3_pse+0x90>
 b96:	91 50       	subi	r25, 0x01	; 1
 b98:	50 40       	sbci	r21, 0x00	; 0
 b9a:	e6 95       	lsr	r30
 b9c:	00 1c       	adc	r0, r0
 b9e:	ca f7       	brpl	.-14     	; 0xb92 <__divsf3_pse+0x2c>
 ba0:	29 d0       	rcall	.+82     	; 0xbf4 <__divsf3_pse+0x8e>
 ba2:	fe 2f       	mov	r31, r30
 ba4:	27 d0       	rcall	.+78     	; 0xbf4 <__divsf3_pse+0x8e>
 ba6:	66 0f       	add	r22, r22
 ba8:	77 1f       	adc	r23, r23
 baa:	88 1f       	adc	r24, r24
 bac:	bb 1f       	adc	r27, r27
 bae:	26 17       	cp	r18, r22
 bb0:	37 07       	cpc	r19, r23
 bb2:	48 07       	cpc	r20, r24
 bb4:	ab 07       	cpc	r26, r27
 bb6:	b0 e8       	ldi	r27, 0x80	; 128
 bb8:	09 f0       	breq	.+2      	; 0xbbc <__divsf3_pse+0x56>
 bba:	bb 0b       	sbc	r27, r27
 bbc:	80 2d       	mov	r24, r0
 bbe:	bf 01       	movw	r22, r30
 bc0:	ff 27       	eor	r31, r31
 bc2:	93 58       	subi	r25, 0x83	; 131
 bc4:	5f 4f       	sbci	r21, 0xFF	; 255
 bc6:	2a f0       	brmi	.+10     	; 0xbd2 <__divsf3_pse+0x6c>
 bc8:	9e 3f       	cpi	r25, 0xFE	; 254
 bca:	51 05       	cpc	r21, r1
 bcc:	68 f0       	brcs	.+26     	; 0xbe8 <__divsf3_pse+0x82>
 bce:	b1 c0       	rjmp	.+354    	; 0xd32 <__fp_inf>
 bd0:	fb c0       	rjmp	.+502    	; 0xdc8 <__fp_szero>
 bd2:	5f 3f       	cpi	r21, 0xFF	; 255
 bd4:	ec f3       	brlt	.-6      	; 0xbd0 <__divsf3_pse+0x6a>
 bd6:	98 3e       	cpi	r25, 0xE8	; 232
 bd8:	dc f3       	brlt	.-10     	; 0xbd0 <__divsf3_pse+0x6a>
 bda:	86 95       	lsr	r24
 bdc:	77 95       	ror	r23
 bde:	67 95       	ror	r22
 be0:	b7 95       	ror	r27
 be2:	f7 95       	ror	r31
 be4:	9f 5f       	subi	r25, 0xFF	; 255
 be6:	c9 f7       	brne	.-14     	; 0xbda <__divsf3_pse+0x74>
 be8:	88 0f       	add	r24, r24
 bea:	91 1d       	adc	r25, r1
 bec:	96 95       	lsr	r25
 bee:	87 95       	ror	r24
 bf0:	97 f9       	bld	r25, 7
 bf2:	08 95       	ret
 bf4:	e1 e0       	ldi	r30, 0x01	; 1
 bf6:	66 0f       	add	r22, r22
 bf8:	77 1f       	adc	r23, r23
 bfa:	88 1f       	adc	r24, r24
 bfc:	bb 1f       	adc	r27, r27
 bfe:	62 17       	cp	r22, r18
 c00:	73 07       	cpc	r23, r19
 c02:	84 07       	cpc	r24, r20
 c04:	ba 07       	cpc	r27, r26
 c06:	20 f0       	brcs	.+8      	; 0xc10 <__divsf3_pse+0xaa>
 c08:	62 1b       	sub	r22, r18
 c0a:	73 0b       	sbc	r23, r19
 c0c:	84 0b       	sbc	r24, r20
 c0e:	ba 0b       	sbc	r27, r26
 c10:	ee 1f       	adc	r30, r30
 c12:	88 f7       	brcc	.-30     	; 0xbf6 <__divsf3_pse+0x90>
 c14:	e0 95       	com	r30
 c16:	08 95       	ret

00000c18 <__fixunssfsi>:
 c18:	bc d0       	rcall	.+376    	; 0xd92 <__fp_splitA>
 c1a:	88 f0       	brcs	.+34     	; 0xc3e <__fixunssfsi+0x26>
 c1c:	9f 57       	subi	r25, 0x7F	; 127
 c1e:	90 f0       	brcs	.+36     	; 0xc44 <__fixunssfsi+0x2c>
 c20:	b9 2f       	mov	r27, r25
 c22:	99 27       	eor	r25, r25
 c24:	b7 51       	subi	r27, 0x17	; 23
 c26:	a0 f0       	brcs	.+40     	; 0xc50 <__fixunssfsi+0x38>
 c28:	d1 f0       	breq	.+52     	; 0xc5e <__fixunssfsi+0x46>
 c2a:	66 0f       	add	r22, r22
 c2c:	77 1f       	adc	r23, r23
 c2e:	88 1f       	adc	r24, r24
 c30:	99 1f       	adc	r25, r25
 c32:	1a f0       	brmi	.+6      	; 0xc3a <__fixunssfsi+0x22>
 c34:	ba 95       	dec	r27
 c36:	c9 f7       	brne	.-14     	; 0xc2a <__fixunssfsi+0x12>
 c38:	12 c0       	rjmp	.+36     	; 0xc5e <__fixunssfsi+0x46>
 c3a:	b1 30       	cpi	r27, 0x01	; 1
 c3c:	81 f0       	breq	.+32     	; 0xc5e <__fixunssfsi+0x46>
 c3e:	c3 d0       	rcall	.+390    	; 0xdc6 <__fp_zero>
 c40:	b1 e0       	ldi	r27, 0x01	; 1
 c42:	08 95       	ret
 c44:	c0 c0       	rjmp	.+384    	; 0xdc6 <__fp_zero>
 c46:	67 2f       	mov	r22, r23
 c48:	78 2f       	mov	r23, r24
 c4a:	88 27       	eor	r24, r24
 c4c:	b8 5f       	subi	r27, 0xF8	; 248
 c4e:	39 f0       	breq	.+14     	; 0xc5e <__fixunssfsi+0x46>
 c50:	b9 3f       	cpi	r27, 0xF9	; 249
 c52:	cc f3       	brlt	.-14     	; 0xc46 <__fixunssfsi+0x2e>
 c54:	86 95       	lsr	r24
 c56:	77 95       	ror	r23
 c58:	67 95       	ror	r22
 c5a:	b3 95       	inc	r27
 c5c:	d9 f7       	brne	.-10     	; 0xc54 <__fixunssfsi+0x3c>
 c5e:	3e f4       	brtc	.+14     	; 0xc6e <__fixunssfsi+0x56>
 c60:	90 95       	com	r25
 c62:	80 95       	com	r24
 c64:	70 95       	com	r23
 c66:	61 95       	neg	r22
 c68:	7f 4f       	sbci	r23, 0xFF	; 255
 c6a:	8f 4f       	sbci	r24, 0xFF	; 255
 c6c:	9f 4f       	sbci	r25, 0xFF	; 255
 c6e:	08 95       	ret

00000c70 <__floatunsisf>:
 c70:	e8 94       	clt
 c72:	09 c0       	rjmp	.+18     	; 0xc86 <__floatsisf+0x12>

00000c74 <__floatsisf>:
 c74:	97 fb       	bst	r25, 7
 c76:	3e f4       	brtc	.+14     	; 0xc86 <__floatsisf+0x12>
 c78:	90 95       	com	r25
 c7a:	80 95       	com	r24
 c7c:	70 95       	com	r23
 c7e:	61 95       	neg	r22
 c80:	7f 4f       	sbci	r23, 0xFF	; 255
 c82:	8f 4f       	sbci	r24, 0xFF	; 255
 c84:	9f 4f       	sbci	r25, 0xFF	; 255
 c86:	99 23       	and	r25, r25
 c88:	a9 f0       	breq	.+42     	; 0xcb4 <__floatsisf+0x40>
 c8a:	f9 2f       	mov	r31, r25
 c8c:	96 e9       	ldi	r25, 0x96	; 150
 c8e:	bb 27       	eor	r27, r27
 c90:	93 95       	inc	r25
 c92:	f6 95       	lsr	r31
 c94:	87 95       	ror	r24
 c96:	77 95       	ror	r23
 c98:	67 95       	ror	r22
 c9a:	b7 95       	ror	r27
 c9c:	f1 11       	cpse	r31, r1
 c9e:	f8 cf       	rjmp	.-16     	; 0xc90 <__floatsisf+0x1c>
 ca0:	fa f4       	brpl	.+62     	; 0xce0 <__floatsisf+0x6c>
 ca2:	bb 0f       	add	r27, r27
 ca4:	11 f4       	brne	.+4      	; 0xcaa <__floatsisf+0x36>
 ca6:	60 ff       	sbrs	r22, 0
 ca8:	1b c0       	rjmp	.+54     	; 0xce0 <__floatsisf+0x6c>
 caa:	6f 5f       	subi	r22, 0xFF	; 255
 cac:	7f 4f       	sbci	r23, 0xFF	; 255
 cae:	8f 4f       	sbci	r24, 0xFF	; 255
 cb0:	9f 4f       	sbci	r25, 0xFF	; 255
 cb2:	16 c0       	rjmp	.+44     	; 0xce0 <__floatsisf+0x6c>
 cb4:	88 23       	and	r24, r24
 cb6:	11 f0       	breq	.+4      	; 0xcbc <__floatsisf+0x48>
 cb8:	96 e9       	ldi	r25, 0x96	; 150
 cba:	11 c0       	rjmp	.+34     	; 0xcde <__floatsisf+0x6a>
 cbc:	77 23       	and	r23, r23
 cbe:	21 f0       	breq	.+8      	; 0xcc8 <__floatsisf+0x54>
 cc0:	9e e8       	ldi	r25, 0x8E	; 142
 cc2:	87 2f       	mov	r24, r23
 cc4:	76 2f       	mov	r23, r22
 cc6:	05 c0       	rjmp	.+10     	; 0xcd2 <__floatsisf+0x5e>
 cc8:	66 23       	and	r22, r22
 cca:	71 f0       	breq	.+28     	; 0xce8 <__floatsisf+0x74>
 ccc:	96 e8       	ldi	r25, 0x86	; 134
 cce:	86 2f       	mov	r24, r22
 cd0:	70 e0       	ldi	r23, 0x00	; 0
 cd2:	60 e0       	ldi	r22, 0x00	; 0
 cd4:	2a f0       	brmi	.+10     	; 0xce0 <__floatsisf+0x6c>
 cd6:	9a 95       	dec	r25
 cd8:	66 0f       	add	r22, r22
 cda:	77 1f       	adc	r23, r23
 cdc:	88 1f       	adc	r24, r24
 cde:	da f7       	brpl	.-10     	; 0xcd6 <__floatsisf+0x62>
 ce0:	88 0f       	add	r24, r24
 ce2:	96 95       	lsr	r25
 ce4:	87 95       	ror	r24
 ce6:	97 f9       	bld	r25, 7
 ce8:	08 95       	ret

00000cea <__fp_cmp>:
 cea:	99 0f       	add	r25, r25
 cec:	00 08       	sbc	r0, r0
 cee:	55 0f       	add	r21, r21
 cf0:	aa 0b       	sbc	r26, r26
 cf2:	e0 e8       	ldi	r30, 0x80	; 128
 cf4:	fe ef       	ldi	r31, 0xFE	; 254
 cf6:	16 16       	cp	r1, r22
 cf8:	17 06       	cpc	r1, r23
 cfa:	e8 07       	cpc	r30, r24
 cfc:	f9 07       	cpc	r31, r25
 cfe:	c0 f0       	brcs	.+48     	; 0xd30 <__fp_cmp+0x46>
 d00:	12 16       	cp	r1, r18
 d02:	13 06       	cpc	r1, r19
 d04:	e4 07       	cpc	r30, r20
 d06:	f5 07       	cpc	r31, r21
 d08:	98 f0       	brcs	.+38     	; 0xd30 <__fp_cmp+0x46>
 d0a:	62 1b       	sub	r22, r18
 d0c:	73 0b       	sbc	r23, r19
 d0e:	84 0b       	sbc	r24, r20
 d10:	95 0b       	sbc	r25, r21
 d12:	39 f4       	brne	.+14     	; 0xd22 <__fp_cmp+0x38>
 d14:	0a 26       	eor	r0, r26
 d16:	61 f0       	breq	.+24     	; 0xd30 <__fp_cmp+0x46>
 d18:	23 2b       	or	r18, r19
 d1a:	24 2b       	or	r18, r20
 d1c:	25 2b       	or	r18, r21
 d1e:	21 f4       	brne	.+8      	; 0xd28 <__fp_cmp+0x3e>
 d20:	08 95       	ret
 d22:	0a 26       	eor	r0, r26
 d24:	09 f4       	brne	.+2      	; 0xd28 <__fp_cmp+0x3e>
 d26:	a1 40       	sbci	r26, 0x01	; 1
 d28:	a6 95       	lsr	r26
 d2a:	8f ef       	ldi	r24, 0xFF	; 255
 d2c:	81 1d       	adc	r24, r1
 d2e:	81 1d       	adc	r24, r1
 d30:	08 95       	ret

00000d32 <__fp_inf>:
 d32:	97 f9       	bld	r25, 7
 d34:	9f 67       	ori	r25, 0x7F	; 127
 d36:	80 e8       	ldi	r24, 0x80	; 128
 d38:	70 e0       	ldi	r23, 0x00	; 0
 d3a:	60 e0       	ldi	r22, 0x00	; 0
 d3c:	08 95       	ret

00000d3e <__fp_nan>:
 d3e:	9f ef       	ldi	r25, 0xFF	; 255
 d40:	80 ec       	ldi	r24, 0xC0	; 192
 d42:	08 95       	ret

00000d44 <__fp_pscA>:
 d44:	00 24       	eor	r0, r0
 d46:	0a 94       	dec	r0
 d48:	16 16       	cp	r1, r22
 d4a:	17 06       	cpc	r1, r23
 d4c:	18 06       	cpc	r1, r24
 d4e:	09 06       	cpc	r0, r25
 d50:	08 95       	ret

00000d52 <__fp_pscB>:
 d52:	00 24       	eor	r0, r0
 d54:	0a 94       	dec	r0
 d56:	12 16       	cp	r1, r18
 d58:	13 06       	cpc	r1, r19
 d5a:	14 06       	cpc	r1, r20
 d5c:	05 06       	cpc	r0, r21
 d5e:	08 95       	ret

00000d60 <__fp_round>:
 d60:	09 2e       	mov	r0, r25
 d62:	03 94       	inc	r0
 d64:	00 0c       	add	r0, r0
 d66:	11 f4       	brne	.+4      	; 0xd6c <__fp_round+0xc>
 d68:	88 23       	and	r24, r24
 d6a:	52 f0       	brmi	.+20     	; 0xd80 <__fp_round+0x20>
 d6c:	bb 0f       	add	r27, r27
 d6e:	40 f4       	brcc	.+16     	; 0xd80 <__fp_round+0x20>
 d70:	bf 2b       	or	r27, r31
 d72:	11 f4       	brne	.+4      	; 0xd78 <__fp_round+0x18>
 d74:	60 ff       	sbrs	r22, 0
 d76:	04 c0       	rjmp	.+8      	; 0xd80 <__fp_round+0x20>
 d78:	6f 5f       	subi	r22, 0xFF	; 255
 d7a:	7f 4f       	sbci	r23, 0xFF	; 255
 d7c:	8f 4f       	sbci	r24, 0xFF	; 255
 d7e:	9f 4f       	sbci	r25, 0xFF	; 255
 d80:	08 95       	ret

00000d82 <__fp_split3>:
 d82:	57 fd       	sbrc	r21, 7
 d84:	90 58       	subi	r25, 0x80	; 128
 d86:	44 0f       	add	r20, r20
 d88:	55 1f       	adc	r21, r21
 d8a:	59 f0       	breq	.+22     	; 0xda2 <__fp_splitA+0x10>
 d8c:	5f 3f       	cpi	r21, 0xFF	; 255
 d8e:	71 f0       	breq	.+28     	; 0xdac <__fp_splitA+0x1a>
 d90:	47 95       	ror	r20

00000d92 <__fp_splitA>:
 d92:	88 0f       	add	r24, r24
 d94:	97 fb       	bst	r25, 7
 d96:	99 1f       	adc	r25, r25
 d98:	61 f0       	breq	.+24     	; 0xdb2 <__fp_splitA+0x20>
 d9a:	9f 3f       	cpi	r25, 0xFF	; 255
 d9c:	79 f0       	breq	.+30     	; 0xdbc <__fp_splitA+0x2a>
 d9e:	87 95       	ror	r24
 da0:	08 95       	ret
 da2:	12 16       	cp	r1, r18
 da4:	13 06       	cpc	r1, r19
 da6:	14 06       	cpc	r1, r20
 da8:	55 1f       	adc	r21, r21
 daa:	f2 cf       	rjmp	.-28     	; 0xd90 <__fp_split3+0xe>
 dac:	46 95       	lsr	r20
 dae:	f1 df       	rcall	.-30     	; 0xd92 <__fp_splitA>
 db0:	08 c0       	rjmp	.+16     	; 0xdc2 <__fp_splitA+0x30>
 db2:	16 16       	cp	r1, r22
 db4:	17 06       	cpc	r1, r23
 db6:	18 06       	cpc	r1, r24
 db8:	99 1f       	adc	r25, r25
 dba:	f1 cf       	rjmp	.-30     	; 0xd9e <__fp_splitA+0xc>
 dbc:	86 95       	lsr	r24
 dbe:	71 05       	cpc	r23, r1
 dc0:	61 05       	cpc	r22, r1
 dc2:	08 94       	sec
 dc4:	08 95       	ret

00000dc6 <__fp_zero>:
 dc6:	e8 94       	clt

00000dc8 <__fp_szero>:
 dc8:	bb 27       	eor	r27, r27
 dca:	66 27       	eor	r22, r22
 dcc:	77 27       	eor	r23, r23
 dce:	cb 01       	movw	r24, r22
 dd0:	97 f9       	bld	r25, 7
 dd2:	08 95       	ret

00000dd4 <__mulsf3>:
 dd4:	0b d0       	rcall	.+22     	; 0xdec <__mulsf3x>
 dd6:	c4 cf       	rjmp	.-120    	; 0xd60 <__fp_round>
 dd8:	b5 df       	rcall	.-150    	; 0xd44 <__fp_pscA>
 dda:	28 f0       	brcs	.+10     	; 0xde6 <__mulsf3+0x12>
 ddc:	ba df       	rcall	.-140    	; 0xd52 <__fp_pscB>
 dde:	18 f0       	brcs	.+6      	; 0xde6 <__mulsf3+0x12>
 de0:	95 23       	and	r25, r21
 de2:	09 f0       	breq	.+2      	; 0xde6 <__mulsf3+0x12>
 de4:	a6 cf       	rjmp	.-180    	; 0xd32 <__fp_inf>
 de6:	ab cf       	rjmp	.-170    	; 0xd3e <__fp_nan>
 de8:	11 24       	eor	r1, r1
 dea:	ee cf       	rjmp	.-36     	; 0xdc8 <__fp_szero>

00000dec <__mulsf3x>:
 dec:	ca df       	rcall	.-108    	; 0xd82 <__fp_split3>
 dee:	a0 f3       	brcs	.-24     	; 0xdd8 <__mulsf3+0x4>

00000df0 <__mulsf3_pse>:
 df0:	95 9f       	mul	r25, r21
 df2:	d1 f3       	breq	.-12     	; 0xde8 <__mulsf3+0x14>
 df4:	95 0f       	add	r25, r21
 df6:	50 e0       	ldi	r21, 0x00	; 0
 df8:	55 1f       	adc	r21, r21
 dfa:	62 9f       	mul	r22, r18
 dfc:	f0 01       	movw	r30, r0
 dfe:	72 9f       	mul	r23, r18
 e00:	bb 27       	eor	r27, r27
 e02:	f0 0d       	add	r31, r0
 e04:	b1 1d       	adc	r27, r1
 e06:	63 9f       	mul	r22, r19
 e08:	aa 27       	eor	r26, r26
 e0a:	f0 0d       	add	r31, r0
 e0c:	b1 1d       	adc	r27, r1
 e0e:	aa 1f       	adc	r26, r26
 e10:	64 9f       	mul	r22, r20
 e12:	66 27       	eor	r22, r22
 e14:	b0 0d       	add	r27, r0
 e16:	a1 1d       	adc	r26, r1
 e18:	66 1f       	adc	r22, r22
 e1a:	82 9f       	mul	r24, r18
 e1c:	22 27       	eor	r18, r18
 e1e:	b0 0d       	add	r27, r0
 e20:	a1 1d       	adc	r26, r1
 e22:	62 1f       	adc	r22, r18
 e24:	73 9f       	mul	r23, r19
 e26:	b0 0d       	add	r27, r0
 e28:	a1 1d       	adc	r26, r1
 e2a:	62 1f       	adc	r22, r18
 e2c:	83 9f       	mul	r24, r19
 e2e:	a0 0d       	add	r26, r0
 e30:	61 1d       	adc	r22, r1
 e32:	22 1f       	adc	r18, r18
 e34:	74 9f       	mul	r23, r20
 e36:	33 27       	eor	r19, r19
 e38:	a0 0d       	add	r26, r0
 e3a:	61 1d       	adc	r22, r1
 e3c:	23 1f       	adc	r18, r19
 e3e:	84 9f       	mul	r24, r20
 e40:	60 0d       	add	r22, r0
 e42:	21 1d       	adc	r18, r1
 e44:	82 2f       	mov	r24, r18
 e46:	76 2f       	mov	r23, r22
 e48:	6a 2f       	mov	r22, r26
 e4a:	11 24       	eor	r1, r1
 e4c:	9f 57       	subi	r25, 0x7F	; 127
 e4e:	50 40       	sbci	r21, 0x00	; 0
 e50:	8a f0       	brmi	.+34     	; 0xe74 <__mulsf3_pse+0x84>
 e52:	e1 f0       	breq	.+56     	; 0xe8c <__mulsf3_pse+0x9c>
 e54:	88 23       	and	r24, r24
 e56:	4a f0       	brmi	.+18     	; 0xe6a <__mulsf3_pse+0x7a>
 e58:	ee 0f       	add	r30, r30
 e5a:	ff 1f       	adc	r31, r31
 e5c:	bb 1f       	adc	r27, r27
 e5e:	66 1f       	adc	r22, r22
 e60:	77 1f       	adc	r23, r23
 e62:	88 1f       	adc	r24, r24
 e64:	91 50       	subi	r25, 0x01	; 1
 e66:	50 40       	sbci	r21, 0x00	; 0
 e68:	a9 f7       	brne	.-22     	; 0xe54 <__mulsf3_pse+0x64>
 e6a:	9e 3f       	cpi	r25, 0xFE	; 254
 e6c:	51 05       	cpc	r21, r1
 e6e:	70 f0       	brcs	.+28     	; 0xe8c <__mulsf3_pse+0x9c>
 e70:	60 cf       	rjmp	.-320    	; 0xd32 <__fp_inf>
 e72:	aa cf       	rjmp	.-172    	; 0xdc8 <__fp_szero>
 e74:	5f 3f       	cpi	r21, 0xFF	; 255
 e76:	ec f3       	brlt	.-6      	; 0xe72 <__mulsf3_pse+0x82>
 e78:	98 3e       	cpi	r25, 0xE8	; 232
 e7a:	dc f3       	brlt	.-10     	; 0xe72 <__mulsf3_pse+0x82>
 e7c:	86 95       	lsr	r24
 e7e:	77 95       	ror	r23
 e80:	67 95       	ror	r22
 e82:	b7 95       	ror	r27
 e84:	f7 95       	ror	r31
 e86:	e7 95       	ror	r30
 e88:	9f 5f       	subi	r25, 0xFF	; 255
 e8a:	c1 f7       	brne	.-16     	; 0xe7c <__mulsf3_pse+0x8c>
 e8c:	fe 2b       	or	r31, r30
 e8e:	88 0f       	add	r24, r24
 e90:	91 1d       	adc	r25, r1
 e92:	96 95       	lsr	r25
 e94:	87 95       	ror	r24
 e96:	97 f9       	bld	r25, 7
 e98:	08 95       	ret

00000e9a <memset>:
 e9a:	dc 01       	movw	r26, r24
 e9c:	01 c0       	rjmp	.+2      	; 0xea0 <memset+0x6>
 e9e:	6d 93       	st	X+, r22
 ea0:	41 50       	subi	r20, 0x01	; 1
 ea2:	50 40       	sbci	r21, 0x00	; 0
 ea4:	e0 f7       	brcc	.-8      	; 0xe9e <memset+0x4>
 ea6:	08 95       	ret

00000ea8 <_exit>:
 ea8:	f8 94       	cli

00000eaa <__stop_program>:
 eaa:	ff cf       	rjmp	.-2      	; 0xeaa <__stop_program>
